TN:
SF:/mnt/d/GTest-Coverage/my_math.cpp
FN:15,24,_ZN6MyMath9fibonacciEi
FN:26,35,_ZN6MyMath3gcdEii
FN:37,46,_ZN6MyMath3lcmEii
FN:4,13,_ZN6MyMath9factorialEi
FN:48,63,_ZN6MyMath13prime_factorsEi
FN:65,75,_ZN6MyMath12calculate_piEi
FN:77,79,_ZN6MyMath7sigmoidEd
FN:81,83,_ZN6MyMath4reluEd
FN:85,98,_ZN6MyMath18mean_squared_errorERKSt6vectorIdSaIdEES4_
FNDA:165,_ZN6MyMath9fibonacciEi
FNDA:51,_ZN6MyMath3gcdEii
FNDA:10,_ZN6MyMath3lcmEii
FNDA:32,_ZN6MyMath9factorialEi
FNDA:9,_ZN6MyMath13prime_factorsEi
FNDA:8,_ZN6MyMath12calculate_piEi
FNDA:9,_ZN6MyMath7sigmoidEd
FNDA:9,_ZN6MyMath4reluEd
FNDA:3,_ZN6MyMath18mean_squared_errorERKSt6vectorIdSaIdEES4_
FNF:9
FNH:9
DA:4,32
DA:5,32
DA:6,1
DA:8,31
DA:9,7
DA:11,24
DA:15,165
DA:16,165
DA:17,1
DA:19,164
DA:20,86
DA:22,78
DA:26,51
DA:27,51
DA:28,2
DA:30,49
DA:31,14
DA:33,35
DA:37,10
DA:38,10
DA:39,2
DA:41,8
DA:42,2
DA:44,6
DA:48,9
DA:49,9
DA:50,3
DA:52,6
DA:53,20
DA:54,28
DA:55,14
DA:56,14
DA:59,6
DA:60,4
DA:62,6
DA:63,0
DA:65,8
DA:66,8
DA:67,2
DA:69,6
DA:70,32006
DA:71,32000
DA:72,32000
DA:74,6
DA:77,9
DA:78,9
DA:81,9
DA:82,9
DA:85,3
DA:87,3
DA:88,1
DA:91,2
DA:92,8
DA:93,6
DA:94,6
DA:97,2
LF:56
LH:55
end_of_record
TN:
SF:/mnt/d/GTest-Coverage/test_my_program.cpp
FN:104,107,_ZN25CalculatePi_EdgeTest_Test8TestBodyEv
FN:104,107,_ZN25CalculatePi_EdgeTest_TestC2Ev
FN:104,107,_ZN25CalculatePi_EdgeTest_TestD0Ev
FN:104,107,_ZN25CalculatePi_EdgeTest_TestD2Ev
FN:109,109,_ZN21Sigmoid_EdgeTest_Test8TestBodyEv
FN:109,109,_ZN21Sigmoid_EdgeTest_TestC2Ev
FN:109,109,_ZN21Sigmoid_EdgeTest_TestD0Ev
FN:109,109,_ZN21Sigmoid_EdgeTest_TestD2Ev
FN:115,119,_ZN18ReLU_EdgeTest_Test8TestBodyEv
FN:115,119,_ZN18ReLU_EdgeTest_TestC2Ev
FN:115,119,_ZN18ReLU_EdgeTest_TestD0Ev
FN:115,119,_ZN18ReLU_EdgeTest_TestD2Ev
FN:121,121,_ZN30MeanSquaredError_EdgeTest_Test8TestBodyEv
FN:121,121,_ZN30MeanSquaredError_EdgeTest_TestC2Ev
FN:121,121,_ZN30MeanSquaredError_EdgeTest_TestD0Ev
FN:121,121,_ZN30MeanSquaredError_EdgeTest_TestD2Ev
FN:14,14,_ZN25Fibonacci_NormalTest_Test8TestBodyEv
FN:14,14,_ZN25Fibonacci_NormalTest_TestC2Ev
FN:14,14,_ZN25Fibonacci_NormalTest_TestD0Ev
FN:14,14,_ZN25Fibonacci_NormalTest_TestD2Ev
FN:20,20,_ZN19GCD_NormalTest_Test8TestBodyEv
FN:20,20,_ZN19GCD_NormalTest_TestC2Ev
FN:20,20,_ZN19GCD_NormalTest_TestD0Ev
FN:20,20,_ZN19GCD_NormalTest_TestD2Ev
FN:26,26,_ZN19LCM_NormalTest_Test8TestBodyEv
FN:26,26,_ZN19LCM_NormalTest_TestC2Ev
FN:26,26,_ZN19LCM_NormalTest_TestD0Ev
FN:26,26,_ZN19LCM_NormalTest_TestD2Ev
FN:32,41,_ZN28PrimeFactors_NormalTest_Test8TestBodyEv
FN:32,41,_ZN28PrimeFactors_NormalTest_TestC2Ev
FN:32,41,_ZN28PrimeFactors_NormalTest_TestD0Ev
FN:32,41,_ZN28PrimeFactors_NormalTest_TestD2Ev
FN:43,43,_ZN27CalculatePi_NormalTest_Test8TestBodyEv
FN:43,43,_ZN27CalculatePi_NormalTest_TestC2Ev
FN:43,43,_ZN27CalculatePi_NormalTest_TestD0Ev
FN:43,43,_ZN27CalculatePi_NormalTest_TestD2Ev
FN:50,50,_ZN23Sigmoid_NormalTest_Test8TestBodyEv
FN:50,50,_ZN23Sigmoid_NormalTest_TestC2Ev
FN:50,50,_ZN23Sigmoid_NormalTest_TestD0Ev
FN:50,50,_ZN23Sigmoid_NormalTest_TestD2Ev
FN:56,56,_ZN20ReLU_NormalTest_Test8TestBodyEv
FN:56,56,_ZN20ReLU_NormalTest_TestC2Ev
FN:56,56,_ZN20ReLU_NormalTest_TestD0Ev
FN:56,56,_ZN20ReLU_NormalTest_TestD2Ev
FN:62,62,_ZN32MeanSquaredError_NormalTest_Test8TestBodyEv
FN:62,62,_ZN32MeanSquaredError_NormalTest_TestC2Ev
FN:62,62,_ZN32MeanSquaredError_NormalTest_TestD0Ev
FN:62,62,_ZN32MeanSquaredError_NormalTest_TestD2Ev
FN:73,73,_ZN23Factorial_EdgeTest_Test8TestBodyEv
FN:73,73,_ZN23Factorial_EdgeTest_TestC2Ev
FN:73,73,_ZN23Factorial_EdgeTest_TestD0Ev
FN:73,73,_ZN23Factorial_EdgeTest_TestD2Ev
FN:78,78,_ZN23Fibonacci_EdgeTest_Test8TestBodyEv
FN:78,78,_ZN23Fibonacci_EdgeTest_TestC2Ev
FN:78,78,_ZN23Fibonacci_EdgeTest_TestD0Ev
FN:78,78,_ZN23Fibonacci_EdgeTest_TestD2Ev
FN:8,8,_ZN25Factorial_NormalTest_Test8TestBodyEv
FN:8,8,_ZN25Factorial_NormalTest_TestC2Ev
FN:8,8,_ZN25Factorial_NormalTest_TestD0Ev
FN:8,8,_ZN25Factorial_NormalTest_TestD2Ev
FN:84,84,_ZN17GCD_EdgeTest_Test8TestBodyEv
FN:84,84,_ZN17GCD_EdgeTest_TestC2Ev
FN:84,84,_ZN17GCD_EdgeTest_TestD0Ev
FN:84,84,_ZN17GCD_EdgeTest_TestD2Ev
FN:91,91,_ZN17LCM_EdgeTest_Test8TestBodyEv
FN:91,91,_ZN17LCM_EdgeTest_TestC2Ev
FN:91,91,_ZN17LCM_EdgeTest_TestD0Ev
FN:91,91,_ZN17LCM_EdgeTest_TestD2Ev
FN:98,98,_ZN26PrimeFactors_EdgeTest_Test8TestBodyEv
FN:98,98,_ZN26PrimeFactors_EdgeTest_TestC2Ev
FN:98,98,_ZN26PrimeFactors_EdgeTest_TestD0Ev
FN:98,98,_ZN26PrimeFactors_EdgeTest_TestD2Ev
FNDA:1,_ZN25CalculatePi_EdgeTest_Test8TestBodyEv
FNDA:1,_ZN25CalculatePi_EdgeTest_TestC2Ev
FNDA:1,_ZN25CalculatePi_EdgeTest_TestD0Ev
FNDA:1,_ZN25CalculatePi_EdgeTest_TestD2Ev
FNDA:1,_ZN21Sigmoid_EdgeTest_Test8TestBodyEv
FNDA:1,_ZN21Sigmoid_EdgeTest_TestC2Ev
FNDA:1,_ZN21Sigmoid_EdgeTest_TestD0Ev
FNDA:1,_ZN21Sigmoid_EdgeTest_TestD2Ev
FNDA:1,_ZN18ReLU_EdgeTest_Test8TestBodyEv
FNDA:1,_ZN18ReLU_EdgeTest_TestC2Ev
FNDA:1,_ZN18ReLU_EdgeTest_TestD0Ev
FNDA:1,_ZN18ReLU_EdgeTest_TestD2Ev
FNDA:1,_ZN30MeanSquaredError_EdgeTest_Test8TestBodyEv
FNDA:1,_ZN30MeanSquaredError_EdgeTest_TestC2Ev
FNDA:1,_ZN30MeanSquaredError_EdgeTest_TestD0Ev
FNDA:1,_ZN30MeanSquaredError_EdgeTest_TestD2Ev
FNDA:1,_ZN25Fibonacci_NormalTest_Test8TestBodyEv
FNDA:1,_ZN25Fibonacci_NormalTest_TestC2Ev
FNDA:1,_ZN25Fibonacci_NormalTest_TestD0Ev
FNDA:1,_ZN25Fibonacci_NormalTest_TestD2Ev
FNDA:1,_ZN19GCD_NormalTest_Test8TestBodyEv
FNDA:1,_ZN19GCD_NormalTest_TestC2Ev
FNDA:1,_ZN19GCD_NormalTest_TestD0Ev
FNDA:1,_ZN19GCD_NormalTest_TestD2Ev
FNDA:1,_ZN19LCM_NormalTest_Test8TestBodyEv
FNDA:1,_ZN19LCM_NormalTest_TestC2Ev
FNDA:1,_ZN19LCM_NormalTest_TestD0Ev
FNDA:1,_ZN19LCM_NormalTest_TestD2Ev
FNDA:1,_ZN28PrimeFactors_NormalTest_Test8TestBodyEv
FNDA:1,_ZN28PrimeFactors_NormalTest_TestC2Ev
FNDA:1,_ZN28PrimeFactors_NormalTest_TestD0Ev
FNDA:1,_ZN28PrimeFactors_NormalTest_TestD2Ev
FNDA:1,_ZN27CalculatePi_NormalTest_Test8TestBodyEv
FNDA:1,_ZN27CalculatePi_NormalTest_TestC2Ev
FNDA:1,_ZN27CalculatePi_NormalTest_TestD0Ev
FNDA:1,_ZN27CalculatePi_NormalTest_TestD2Ev
FNDA:1,_ZN23Sigmoid_NormalTest_Test8TestBodyEv
FNDA:1,_ZN23Sigmoid_NormalTest_TestC2Ev
FNDA:1,_ZN23Sigmoid_NormalTest_TestD0Ev
FNDA:1,_ZN23Sigmoid_NormalTest_TestD2Ev
FNDA:1,_ZN20ReLU_NormalTest_Test8TestBodyEv
FNDA:1,_ZN20ReLU_NormalTest_TestC2Ev
FNDA:1,_ZN20ReLU_NormalTest_TestD0Ev
FNDA:1,_ZN20ReLU_NormalTest_TestD2Ev
FNDA:1,_ZN32MeanSquaredError_NormalTest_Test8TestBodyEv
FNDA:1,_ZN32MeanSquaredError_NormalTest_TestC2Ev
FNDA:1,_ZN32MeanSquaredError_NormalTest_TestD0Ev
FNDA:1,_ZN32MeanSquaredError_NormalTest_TestD2Ev
FNDA:1,_ZN23Factorial_EdgeTest_Test8TestBodyEv
FNDA:1,_ZN23Factorial_EdgeTest_TestC2Ev
FNDA:1,_ZN23Factorial_EdgeTest_TestD0Ev
FNDA:1,_ZN23Factorial_EdgeTest_TestD2Ev
FNDA:1,_ZN23Fibonacci_EdgeTest_Test8TestBodyEv
FNDA:1,_ZN23Fibonacci_EdgeTest_TestC2Ev
FNDA:1,_ZN23Fibonacci_EdgeTest_TestD0Ev
FNDA:1,_ZN23Fibonacci_EdgeTest_TestD2Ev
FNDA:1,_ZN25Factorial_NormalTest_Test8TestBodyEv
FNDA:1,_ZN25Factorial_NormalTest_TestC2Ev
FNDA:1,_ZN25Factorial_NormalTest_TestD0Ev
FNDA:1,_ZN25Factorial_NormalTest_TestD2Ev
FNDA:1,_ZN17GCD_EdgeTest_Test8TestBodyEv
FNDA:1,_ZN17GCD_EdgeTest_TestC2Ev
FNDA:1,_ZN17GCD_EdgeTest_TestD0Ev
FNDA:1,_ZN17GCD_EdgeTest_TestD2Ev
FNDA:1,_ZN17LCM_EdgeTest_Test8TestBodyEv
FNDA:1,_ZN17LCM_EdgeTest_TestC2Ev
FNDA:1,_ZN17LCM_EdgeTest_TestD0Ev
FNDA:1,_ZN17LCM_EdgeTest_TestD2Ev
FNDA:1,_ZN26PrimeFactors_EdgeTest_Test8TestBodyEv
FNDA:1,_ZN26PrimeFactors_EdgeTest_TestC2Ev
FNDA:1,_ZN26PrimeFactors_EdgeTest_TestD0Ev
FNDA:1,_ZN26PrimeFactors_EdgeTest_TestD2Ev
FNF:72
FNH:72
DA:8,4
DA:9,1
DA:10,1
DA:11,1
DA:12,1
DA:14,4
DA:15,1
DA:16,1
DA:17,1
DA:18,1
DA:20,4
DA:21,1
DA:22,1
DA:23,1
DA:24,1
DA:26,4
DA:27,1
DA:28,1
DA:29,1
DA:30,1
DA:32,4
DA:33,2
DA:34,1
DA:36,3
DA:37,1
DA:39,3
DA:40,1
DA:41,1
DA:43,4
DA:44,1
DA:45,1
DA:46,1
DA:47,1
DA:50,4
DA:51,1
DA:52,1
DA:53,1
DA:54,1
DA:56,4
DA:57,1
DA:58,1
DA:59,1
DA:60,1
DA:62,4
DA:63,2
DA:64,2
DA:65,1
DA:67,1
DA:68,1
DA:69,1
DA:73,4
DA:74,1
DA:75,1
DA:76,1
DA:78,4
DA:79,1
DA:80,1
DA:81,1
DA:82,1
DA:84,4
DA:85,1
DA:86,1
DA:87,1
DA:88,1
DA:89,1
DA:91,4
DA:92,1
DA:93,1
DA:94,1
DA:95,1
DA:96,1
DA:98,4
DA:99,1
DA:100,1
DA:101,1
DA:102,1
DA:104,4
DA:105,1
DA:106,1
DA:107,1
DA:109,4
DA:110,1
DA:111,1
DA:112,1
DA:113,1
DA:115,4
DA:116,1
DA:117,1
DA:118,1
DA:119,1
DA:121,4
DA:122,2
DA:123,2
DA:124,1
DA:125,1
LF:95
LH:95
end_of_record
TN:
SF:/usr/include/c++/13/bits/alloc_traits.h
FNF:0
FNH:0
DA:482,67
DA:517,67
DA:538,18
DA:542,18
DA:562,0
DA:574,122
DA:948,38
DA:949,38
LF:8
LH:7
end_of_record
TN:
SF:/usr/include/c++/13/bits/allocator.h
FNF:0
FNH:0
DA:163,33
DA:168,16
DA:184,16
LF:3
LH:3
end_of_record
TN:
SF:/usr/include/c++/13/bits/basic_string.h
FNF:0
FNH:0
DA:355,0
LF:1
LH:0
end_of_record
TN:
SF:/usr/include/c++/13/bits/basic_string.tcc
FN:221,252,_ZNSt7__cxx1112basic_stringIcSt11char_traitsIcESaIcEE12_M_constructIPKcEEvT_S8_St20forward_iterator_tag
FN:221,252,_ZNSt7__cxx1112basic_stringIcSt11char_traitsIcESaIcEE12_M_constructIPcEEvT_S7_St20forward_iterator_tag
FN:239,239,_ZZNSt7__cxx1112basic_stringIcSt11char_traitsIcESaIcEE12_M_constructIPKcEEvT_S8_St20forward_iterator_tagEN6_GuardC2EPS4_
FN:239,239,_ZZNSt7__cxx1112basic_stringIcSt11char_traitsIcESaIcEE12_M_constructIPcEEvT_S7_St20forward_iterator_tagEN6_GuardC2EPS4_
FN:242,242,_ZZNSt7__cxx1112basic_stringIcSt11char_traitsIcESaIcEE12_M_constructIPKcEEvT_S8_St20forward_iterator_tagEN6_GuardD2Ev
FN:242,242,_ZZNSt7__cxx1112basic_stringIcSt11char_traitsIcESaIcEE12_M_constructIPcEEvT_S7_St20forward_iterator_tagEN6_GuardD2Ev
FNDA:0,_ZNSt7__cxx1112basic_stringIcSt11char_traitsIcESaIcEE12_M_constructIPKcEEvT_S8_St20forward_iterator_tag
FNDA:0,_ZNSt7__cxx1112basic_stringIcSt11char_traitsIcESaIcEE12_M_constructIPcEEvT_S7_St20forward_iterator_tag
FNDA:0,_ZZNSt7__cxx1112basic_stringIcSt11char_traitsIcESaIcEE12_M_constructIPKcEEvT_S8_St20forward_iterator_tagEN6_GuardC2EPS4_
FNDA:0,_ZZNSt7__cxx1112basic_stringIcSt11char_traitsIcESaIcEE12_M_constructIPcEEvT_S7_St20forward_iterator_tagEN6_GuardC2EPS4_
FNDA:0,_ZZNSt7__cxx1112basic_stringIcSt11char_traitsIcESaIcEE12_M_constructIPKcEEvT_S8_St20forward_iterator_tagEN6_GuardD2Ev
FNDA:0,_ZZNSt7__cxx1112basic_stringIcSt11char_traitsIcESaIcEE12_M_constructIPcEEvT_S7_St20forward_iterator_tagEN6_GuardD2Ev
FNF:6
FNH:0
DA:221,0
DA:225,0
DA:227,0
DA:229,0
DA:230,0
DA:239,0
DA:242,0
DA:245,0
DA:247,0
DA:249,0
DA:251,0
DA:252,0
LF:12
LH:0
end_of_record
TN:
SF:/usr/include/c++/13/bits/char_traits.h
FN:393,400,_ZNSt11char_traitsIcE6lengthEPKc
FN:427,436,_ZNSt11char_traitsIcE4copyEPcPKcm
FNDA:0,_ZNSt11char_traitsIcE6lengthEPKc
FNDA:0,_ZNSt11char_traitsIcE4copyEPcPKcm
FNF:2
FNH:0
DA:393,0
DA:399,0
DA:427,0
DA:429,0
DA:430,0
DA:435,0
LF:6
LH:0
end_of_record
TN:
SF:/usr/include/c++/13/bits/cpp_type_traits.h
FN:607,608,_ZSt12__miter_baseIPKdET_S2_
FN:607,608,_ZSt12__miter_baseIPKiET_S2_
FN:607,608,_ZSt12__miter_baseIPiET_S1_
FNDA:12,_ZSt12__miter_baseIPKdET_S2_
FNDA:6,_ZSt12__miter_baseIPKiET_S2_
FNDA:0,_ZSt12__miter_baseIPiET_S1_
FNF:3
FNH:2
DA:607,18
DA:608,18
LF:2
LH:2
end_of_record
TN:
SF:/usr/include/c++/13/bits/ios_base.h
FN:732,733,_ZNKSt8ios_base9precisionEv
FN:741,746,_ZNSt8ios_base9precisionEl
FNDA:0,_ZNKSt8ios_base9precisionEv
FNDA:0,_ZNSt8ios_base9precisionEl
FNF:2
FNH:0
DA:732,0
DA:733,0
DA:741,0
DA:743,0
DA:744,0
DA:745,0
LF:6
LH:0
end_of_record
TN:
SF:/usr/include/c++/13/bits/move.h
FN:70,71,_ZSt7forwardIRKiEOT_RNSt16remove_referenceIS2_E4typeE
FN:97,98,_ZSt4moveIRPNSt7__cxx1112basic_stringIcSt11char_traitsIcESaIcEEEEONSt16remove_referenceIT_E4typeEOS9_
FN:97,98,_ZSt4moveIRPNSt7__cxx1118basic_stringstreamIcSt11char_traitsIcESaIcEEEEONSt16remove_referenceIT_E4typeEOS9_
FN:97,98,_ZSt4moveIRPiEONSt16remove_referenceIT_E4typeEOS3_
FN:97,98,_ZSt4moveIRSaIcEEONSt16remove_referenceIT_E4typeEOS3_
FN:97,98,_ZSt4moveIRiEONSt16remove_referenceIT_E4typeEOS2_
FNDA:54,_ZSt7forwardIRKiEOT_RNSt16remove_referenceIS2_E4typeE
FNDA:0,_ZSt4moveIRPNSt7__cxx1112basic_stringIcSt11char_traitsIcESaIcEEEEONSt16remove_referenceIT_E4typeEOS9_
FNDA:94,_ZSt4moveIRPNSt7__cxx1118basic_stringstreamIcSt11char_traitsIcESaIcEEEEONSt16remove_referenceIT_E4typeEOS9_
FNDA:0,_ZSt4moveIRPiEONSt16remove_referenceIT_E4typeEOS3_
FNDA:0,_ZSt4moveIRSaIcEEONSt16remove_referenceIT_E4typeEOS3_
FNDA:45,_ZSt4moveIRiEONSt16remove_referenceIT_E4typeEOS2_
FNF:6
FNH:3
DA:70,54
DA:71,54
DA:97,139
DA:98,139
LF:4
LH:4
end_of_record
TN:
SF:/usr/include/c++/13/bits/new_allocator.h
FN:104,104,_ZNSt15__new_allocatorIcED2Ev
FN:104,104,_ZNSt15__new_allocatorIdED2Ev
FN:104,104,_ZNSt15__new_allocatorIiED2Ev
FN:126,152,_ZNSt15__new_allocatorIdE8allocateEmPKv
FN:126,152,_ZNSt15__new_allocatorIiE8allocateEmPKv
FN:156,173,_ZNSt15__new_allocatorIdE10deallocateEPdm
FN:156,173,_ZNSt15__new_allocatorIiE10deallocateEPim
FNDA:195,_ZNSt15__new_allocatorIcED2Ev
FNDA:14,_ZNSt15__new_allocatorIdED2Ev
FNDA:44,_ZNSt15__new_allocatorIiED2Ev
FNDA:6,_ZNSt15__new_allocatorIdE8allocateEmPKv
FNDA:61,_ZNSt15__new_allocatorIiE8allocateEmPKv
FNDA:6,_ZNSt15__new_allocatorIdE10deallocateEPdm
FNDA:61,_ZNSt15__new_allocatorIiE10deallocateEPim
FNF:7
FNH:7
DA:88,33
DA:92,16
DA:104,253
DA:126,67
DA:134,67
DA:138,0
DA:139,0
DA:140,0
DA:151,67
DA:156,67
DA:172,67
DA:173,67
DA:183,122
DA:191,18
DA:198,0
DA:233,189
LF:16
LH:12
end_of_record
TN:
SF:/usr/include/c++/13/bits/stl_algobase.h
FN:1182,1187,_ZNSt7__equalILb1EE5equalIiEEbPKT_S4_S4_
FN:1213,1220,_ZSt12__equal_aux1IPKiS1_EbT_S2_T0_
FN:1225,1230,_ZSt11__equal_auxIN9__gnu_cxx17__normal_iteratorIPKiSt6vectorIiSaIiEEEES7_EbT_S8_T0_
FN:1547,1558,_ZSt5equalIN9__gnu_cxx17__normal_iteratorIPKiSt6vectorIiSaIiEEEES7_EbT_S8_T0_
FN:233,241,_ZSt3minImERKT_S2_S2_
FN:257,265,_ZSt3maxIdERKT_S2_S2_
FN:257,265,_ZSt3maxImERKT_S2_S2_
FN:316,318,_ZSt12__niter_baseIPKdET_S2_
FN:316,318,_ZSt12__niter_baseIPKiET_S2_
FN:316,318,_ZSt12__niter_baseIPdET_S1_
FN:316,318,_ZSt12__niter_baseIPiET_S1_
FN:338,339,_ZSt12__niter_wrapIPdET_RKS1_S1_
FN:338,339,_ZSt12__niter_wrapIPiET_RKS1_S1_
FN:397,398,_ZNSt11__copy_moveILb0ELb0ESt26random_access_iterator_tagE12__assign_oneIdKdEEvPT_PT0_
FN:397,398,_ZNSt11__copy_moveILb0ELb0ESt26random_access_iterator_tagE12__assign_oneIiKiEEvPT_PT0_
FN:422,423,_ZNSt11__copy_moveILb1ELb0ESt26random_access_iterator_tagE12__assign_oneIiiEEvPT_PT0_
FN:433,442,_ZNSt11__copy_moveILb0ELb1ESt26random_access_iterator_tagE8__copy_mIKddEEPT0_PT_S7_S5_
FN:433,442,_ZNSt11__copy_moveILb0ELb1ESt26random_access_iterator_tagE8__copy_mIKiiEEPT0_PT_S7_S5_
FN:433,442,_ZNSt11__copy_moveILb1ELb1ESt26random_access_iterator_tagE8__copy_mIiiEEPT0_PT_S6_S4_
FN:497,507,_ZSt14__copy_move_a2ILb0EPKdPdET1_T0_S4_S3_
FN:497,507,_ZSt14__copy_move_a2ILb0EPKiPiET1_T0_S4_S3_
FN:497,507,_ZSt14__copy_move_a2ILb1EPiS0_ET1_T0_S2_S1_
FN:532,533,_ZSt14__copy_move_a1ILb0EPKdPdET1_T0_S4_S3_
FN:532,533,_ZSt14__copy_move_a1ILb0EPKiPiET1_T0_S4_S3_
FN:532,533,_ZSt14__copy_move_a1ILb1EPiS0_ET1_T0_S2_S1_
FN:538,544,_ZSt13__copy_move_aILb0EPKdPdET1_T0_S4_S3_
FN:538,544,_ZSt13__copy_move_aILb0EPKiPiET1_T0_S4_S3_
FN:538,544,_ZSt13__copy_move_aILb1EPiS0_ET1_T0_S2_S1_
FN:624,634,_ZSt4copyIPKdPdET0_T_S4_S3_
FN:624,634,_ZSt4copyIPKiPiET0_T_S4_S3_
FN:624,634,_ZSt4copyISt13move_iteratorIPiES1_ET0_T_S4_S3_
FN:93,109,_ZSt8__memcmpIiiEiPKT_PKT0_m
FNDA:3,_ZNSt7__equalILb1EE5equalIiEEbPKT_S4_S4_
FNDA:3,_ZSt12__equal_aux1IPKiS1_EbT_S2_T0_
FNDA:3,_ZSt11__equal_auxIN9__gnu_cxx17__normal_iteratorIPKiSt6vectorIiSaIiEEEES7_EbT_S8_T0_
FNDA:3,_ZSt5equalIN9__gnu_cxx17__normal_iteratorIPKiSt6vectorIiSaIiEEEES7_EbT_S8_T0_
FNDA:318,_ZSt3minImERKT_S2_S2_
FNDA:9,_ZSt3maxIdERKT_S2_S2_
FNDA:140,_ZSt3maxImERKT_S2_S2_
FNDA:12,_ZSt12__niter_baseIPKdET_S2_
FNDA:6,_ZSt12__niter_baseIPKiET_S2_
FNDA:6,_ZSt12__niter_baseIPdET_S1_
FNDA:336,_ZSt12__niter_baseIPiET_S1_
FNDA:6,_ZSt12__niter_wrapIPdET_RKS1_S1_
FNDA:6,_ZSt12__niter_wrapIPiET_RKS1_S1_
FNDA:0,_ZNSt11__copy_moveILb0ELb0ESt26random_access_iterator_tagE12__assign_oneIdKdEEvPT_PT0_
FNDA:0,_ZNSt11__copy_moveILb0ELb0ESt26random_access_iterator_tagE12__assign_oneIiKiEEvPT_PT0_
FNDA:0,_ZNSt11__copy_moveILb1ELb0ESt26random_access_iterator_tagE12__assign_oneIiiEEvPT_PT0_
FNDA:6,_ZNSt11__copy_moveILb0ELb1ESt26random_access_iterator_tagE8__copy_mIKddEEPT0_PT_S7_S5_
FNDA:3,_ZNSt11__copy_moveILb0ELb1ESt26random_access_iterator_tagE8__copy_mIKiiEEPT0_PT_S7_S5_
FNDA:0,_ZNSt11__copy_moveILb1ELb1ESt26random_access_iterator_tagE8__copy_mIiiEEPT0_PT_S6_S4_
FNDA:6,_ZSt14__copy_move_a2ILb0EPKdPdET1_T0_S4_S3_
FNDA:3,_ZSt14__copy_move_a2ILb0EPKiPiET1_T0_S4_S3_
FNDA:0,_ZSt14__copy_move_a2ILb1EPiS0_ET1_T0_S2_S1_
FNDA:6,_ZSt14__copy_move_a1ILb0EPKdPdET1_T0_S4_S3_
FNDA:3,_ZSt14__copy_move_a1ILb0EPKiPiET1_T0_S4_S3_
FNDA:0,_ZSt14__copy_move_a1ILb1EPiS0_ET1_T0_S2_S1_
FNDA:6,_ZSt13__copy_move_aILb0EPKdPdET1_T0_S4_S3_
FNDA:3,_ZSt13__copy_move_aILb0EPKiPiET1_T0_S4_S3_
FNDA:0,_ZSt13__copy_move_aILb1EPiS0_ET1_T0_S2_S1_
FNDA:6,_ZSt4copyIPKdPdET0_T_S4_S3_
FNDA:3,_ZSt4copyIPKiPiET0_T_S4_S3_
FNDA:0,_ZSt4copyISt13move_iteratorIPiES1_ET0_T_S4_S3_
FNDA:3,_ZSt8__memcmpIiiEiPKT_PKT0_m
FNF:32
FNH:24
DA:93,3
DA:108,3
DA:233,318
DA:238,318
DA:239,0
DA:240,318
DA:257,149
DA:262,149
DA:263,77
DA:264,72
DA:316,360
DA:318,360
DA:338,12
DA:339,12
DA:397,0
DA:398,0
DA:422,0
DA:423,0
DA:433,9
DA:435,9
DA:436,9
DA:437,9
DA:438,0
DA:440,0
DA:441,9
DA:497,9
DA:506,9
DA:532,9
DA:533,9
DA:538,9
DA:540,9
DA:543,9
DA:624,9
DA:633,9
DA:1182,3
DA:1184,3
DA:1185,3
DA:1186,0
DA:1213,3
DA:1216,3
DA:1219,3
DA:1225,3
DA:1227,3
DA:1229,3
DA:1547,3
DA:1557,3
LF:46
LH:38
end_of_record
TN:
SF:/usr/include/c++/13/bits/stl_construct.h
FN:172,172,_ZNSt12_Destroy_auxILb1EE9__destroyIPdEEvT_S3_
FN:172,172,_ZNSt12_Destroy_auxILb1EE9__destroyIPiEEvT_S3_
FN:182,197,_ZSt8_DestroyIPdEvT_S1_
FN:182,197,_ZSt8_DestroyIPiEvT_S1_
FNDA:6,_ZNSt12_Destroy_auxILb1EE9__destroyIPdEEvT_S3_
FNDA:32,_ZNSt12_Destroy_auxILb1EE9__destroyIPiEEvT_S3_
FNDA:6,_ZSt8_DestroyIPdEvT_S1_
FNDA:32,_ZSt8_DestroyIPiEvT_S1_
FNF:4
FNH:4
DA:172,38
DA:182,38
DA:196,38
DA:197,38
LF:4
LH:4
end_of_record
TN:
SF:/usr/include/c++/13/bits/stl_iterator.h
FN:1076,1077,_ZN9__gnu_cxx17__normal_iteratorIPKiSt6vectorIiSaIiEEEC2ERKS2_
FN:1076,1077,_ZN9__gnu_cxx17__normal_iteratorIPiSt6vectorIiSaIiEEEC2ERKS1_
FN:1099,1100,_ZNK9__gnu_cxx17__normal_iteratorIPKiSt6vectorIiSaIiEEEdeEv
FN:1109,1113,_ZN9__gnu_cxx17__normal_iteratorIPKiSt6vectorIiSaIiEEEppEv
FN:1162,1163,_ZNK9__gnu_cxx17__normal_iteratorIPKiSt6vectorIiSaIiEEE4baseEv
FN:1162,1163,_ZNK9__gnu_cxx17__normal_iteratorIPiSt6vectorIiSaIiEEE4baseEv
FN:1241,1244,_ZN9__gnu_cxxneIPKiSt6vectorIiSaIiEEEEbRKNS_17__normal_iteratorIT_T0_EESB_
FN:1334,1337,_ZN9__gnu_cxxmiIPiSt6vectorIiSaIiEEEENS_17__normal_iteratorIT_T0_E15difference_typeERKS8_SB_
FN:1357,1359,_ZSt12__niter_baseIPKiSt6vectorIiSaIiEEET_N9__gnu_cxx17__normal_iteratorIS5_T0_EE
FN:1519,1520,_ZNSt13move_iteratorIPiEC2ES0_
FN:1545,1546,_ZNKSt13move_iteratorIPiE4baseEv
FN:1832,1833,_ZSt32__make_move_if_noexcept_iteratorIiSt13move_iteratorIPiEET0_PT_
FN:2968,2970,_ZSt12__miter_baseIPiEDTcl12__miter_basecldtfp_4baseEEESt13move_iteratorIT_E
FNDA:9,_ZN9__gnu_cxx17__normal_iteratorIPKiSt6vectorIiSaIiEEEC2ERKS2_
FNDA:200,_ZN9__gnu_cxx17__normal_iteratorIPiSt6vectorIiSaIiEEEC2ERKS1_
FNDA:0,_ZNK9__gnu_cxx17__normal_iteratorIPKiSt6vectorIiSaIiEEEdeEv
FNDA:0,_ZN9__gnu_cxx17__normal_iteratorIPKiSt6vectorIiSaIiEEEppEv
FNDA:9,_ZNK9__gnu_cxx17__normal_iteratorIPKiSt6vectorIiSaIiEEE4baseEv
FNDA:220,_ZNK9__gnu_cxx17__normal_iteratorIPiSt6vectorIiSaIiEEE4baseEv
FNDA:0,_ZN9__gnu_cxxneIPKiSt6vectorIiSaIiEEEEbRKNS_17__normal_iteratorIT_T0_EESB_
FNDA:55,_ZN9__gnu_cxxmiIPiSt6vectorIiSaIiEEEENS_17__normal_iteratorIT_T0_E15difference_typeERKS8_SB_
FNDA:9,_ZSt12__niter_baseIPKiSt6vectorIiSaIiEEET_N9__gnu_cxx17__normal_iteratorIS5_T0_EE
FNDA:0,_ZNSt13move_iteratorIPiEC2ES0_
FNDA:0,_ZNKSt13move_iteratorIPiE4baseEv
FNDA:0,_ZSt32__make_move_if_noexcept_iteratorIiSt13move_iteratorIPiEET0_PT_
FNDA:0,_ZSt12__miter_baseIPiEDTcl12__miter_basecldtfp_4baseEEESt13move_iteratorIT_E
FNF:13
FNH:6
DA:1076,209
DA:1077,209
DA:1099,0
DA:1100,0
DA:1109,0
DA:1111,0
DA:1112,0
DA:1162,229
DA:1163,229
DA:1241,0
DA:1244,0
DA:1334,55
DA:1337,55
DA:1357,9
DA:1359,9
DA:1519,0
DA:1520,0
DA:1545,0
DA:1546,0
DA:1832,0
DA:1833,0
DA:2968,0
DA:2970,0
LF:23
LH:8
end_of_record
TN:
SF:/usr/include/c++/13/bits/stl_iterator_base_funcs.h
FN:184,196,_ZSt9__advanceIPKdlEvRT_T0_St26random_access_iterator_tag
FNDA:0,_ZSt9__advanceIPKdlEvRT_T0_St26random_access_iterator_tag
FNF:1
FNH:0
DA:106,9
DA:151,18
DA:152,18
DA:184,0
DA:195,0
DA:196,0
DA:223,0
DA:224,0
DA:225,0
LF:9
LH:3
end_of_record
TN:
SF:/usr/include/c++/13/bits/stl_iterator_base_types.h
FNF:0
FNH:0
DA:240,9
LF:1
LH:1
end_of_record
TN:
SF:/usr/include/c++/13/bits/stl_uninitialized.h
FN:1114,1134,_ZSt14__relocate_a_1IiiENSt9enable_ifIXsrSt24__is_bitwise_relocatableIT_vE5valueEPS2_E4typeES4_S4_S4_RSaIT0_E
FN:1141,1150,_ZSt12__relocate_aIPiS0_SaIiEET0_T_S3_S2_RT1_
FN:145,147,_ZNSt20__uninitialized_copyILb1EE13__uninit_copyIPKdPdEET0_T_S6_S5_
FN:145,147,_ZNSt20__uninitialized_copyILb1EE13__uninit_copyIPKiPiEET0_T_S6_S5_
FN:145,147,_ZNSt20__uninitialized_copyILb1EE13__uninit_copyISt13move_iteratorIPiES3_EET0_T_S6_S5_
FN:163,186,_ZSt18uninitialized_copyIPKdPdET0_T_S4_S3_
FN:163,186,_ZSt18uninitialized_copyIPKiPiET0_T_S4_S3_
FN:163,186,_ZSt18uninitialized_copyISt13move_iteratorIPiES1_ET0_T_S4_S3_
FN:366,374,_ZSt22__uninitialized_copy_aIPKdPddET0_T_S4_S3_RSaIT1_E
FN:366,374,_ZSt22__uninitialized_copy_aIPKiPiiET0_T_S4_S3_RSaIT1_E
FN:366,374,_ZSt22__uninitialized_copy_aISt13move_iteratorIPiES1_iET0_T_S4_S3_RSaIT1_E
FN:393,401,_ZSt34__uninitialized_move_if_noexcept_aIPiS0_SaIiEET0_T_S3_S2_RT1_
FNDA:110,_ZSt14__relocate_a_1IiiENSt9enable_ifIXsrSt24__is_bitwise_relocatableIT_vE5valueEPS2_E4typeES4_S4_S4_RSaIT0_E
FNDA:110,_ZSt12__relocate_aIPiS0_SaIiEET0_T_S3_S2_RT1_
FNDA:6,_ZNSt20__uninitialized_copyILb1EE13__uninit_copyIPKdPdEET0_T_S6_S5_
FNDA:3,_ZNSt20__uninitialized_copyILb1EE13__uninit_copyIPKiPiEET0_T_S6_S5_
FNDA:0,_ZNSt20__uninitialized_copyILb1EE13__uninit_copyISt13move_iteratorIPiES3_EET0_T_S6_S5_
FNDA:6,_ZSt18uninitialized_copyIPKdPdET0_T_S4_S3_
FNDA:3,_ZSt18uninitialized_copyIPKiPiET0_T_S4_S3_
FNDA:0,_ZSt18uninitialized_copyISt13move_iteratorIPiES1_ET0_T_S4_S3_
FNDA:6,_ZSt22__uninitialized_copy_aIPKdPddET0_T_S4_S3_RSaIT1_E
FNDA:3,_ZSt22__uninitialized_copy_aIPKiPiiET0_T_S4_S3_RSaIT1_E
FNDA:0,_ZSt22__uninitialized_copy_aISt13move_iteratorIPiES1_iET0_T_S4_S3_RSaIT1_E
FNDA:0,_ZSt34__uninitialized_move_if_noexcept_aIPiS0_SaIiEET0_T_S3_S2_RT1_
FNF:12
FNH:8
DA:145,9
DA:147,9
DA:163,9
DA:174,9
DA:181,9
DA:185,9
DA:366,9
DA:373,9
DA:393,0
DA:399,0
DA:400,0
DA:1114,110
DA:1118,110
DA:1119,110
DA:1131,29
DA:1133,110
DA:1141,110
DA:1147,110
DA:1149,110
LF:19
LH:16
end_of_record
TN:
SF:/usr/include/c++/13/bits/stl_vector.h
FN:1078,1080,_ZNKSt6vectorIdSaIdEE8capacityEv
FN:1145,1149,_ZNKSt6vectorIdSaIdEEixEm
FN:1281,1293,_ZNSt6vectorIiSaIiEE9push_backERKi
FN:137,143,_ZNSt12_Vector_baseIiSaIiEE12_Vector_implC2Ev
FN:146,148,_ZNSt12_Vector_baseIdSaIdEE12_Vector_implC2ERKS0_
FN:146,148,_ZNSt12_Vector_baseIiSaIiEE12_Vector_implC2ERKS0_
FN:1616,1631,_ZNSt6vectorIdSaIdEE20_M_allocate_and_copyIPKdEEPdmT_S6_
FN:1687,1698,_ZNSt6vectorIdSaIdEE19_M_range_initializeIPKdEEvT_S5_St20forward_iterator_tag
FN:1687,1698,_ZNSt6vectorIiSaIiEE19_M_range_initializeIPKiEEvT_S5_St20forward_iterator_tag
FN:1896,1903,_ZNKSt6vectorIiSaIiEE12_M_check_lenEmPKc
FN:1907,1913,_ZNSt6vectorIdSaIdEE17_S_check_init_lenEmRKS0_
FN:1907,1913,_ZNSt6vectorIiSaIiEE17_S_check_init_lenEmRKS0_
FN:1916,1925,_ZNSt6vectorIdSaIdEE11_S_max_sizeERKS0_
FN:1916,1925,_ZNSt6vectorIiSaIiEE11_S_max_sizeERKS0_
FN:1933,1942,_ZNSt6vectorIdSaIdEE15_M_erase_at_endEPd
FN:2040,2042,_ZSteqIiSaIiEEbRKSt6vectorIT_T0_ES6_
FN:301,302,_ZNSt12_Vector_baseIdSaIdEE19_M_get_Tp_allocatorEv
FN:301,302,_ZNSt12_Vector_baseIiSaIiEE19_M_get_Tp_allocatorEv
FN:306,307,_ZNKSt12_Vector_baseIiSaIiEE19_M_get_Tp_allocatorEv
FN:315,315,_ZNSt12_Vector_baseIiSaIiEEC2Ev
FN:321,322,_ZNSt12_Vector_baseIdSaIdEEC2ERKS0_
FN:321,322,_ZNSt12_Vector_baseIiSaIiEEC2ERKS0_
FN:367,371,_ZNSt12_Vector_baseIdSaIdEED2Ev
FN:367,371,_ZNSt12_Vector_baseIiSaIiEED2Ev
FN:378,382,_ZNSt12_Vector_baseIdSaIdEE11_M_allocateEm
FN:378,382,_ZNSt12_Vector_baseIiSaIiEE11_M_allocateEm
FN:386,391,_ZNSt12_Vector_baseIdSaIdEE13_M_deallocateEPdm
FN:386,391,_ZNSt12_Vector_baseIiSaIiEE13_M_deallocateEPim
FN:470,476,_ZNSt6vectorIiSaIiEE19_S_nothrow_relocateESt17integral_constantIbLb1EE
FN:483,489,_ZNSt6vectorIiSaIiEE15_S_use_relocateEv
FN:492,496,_ZNSt6vectorIiSaIiEE14_S_do_relocateEPiS2_S2_RS0_St17integral_constantIbLb1EE
FN:504,514,_ZNSt6vectorIiSaIiEE11_S_relocateEPiS2_S2_RS0_
FN:531,531,_ZNSt6vectorIiSaIiEEC2Ev
FN:678,684,_ZNSt6vectorIdSaIdEEC2ESt16initializer_listIdERKS0_
FN:678,684,_ZNSt6vectorIiSaIiEEC2ESt16initializer_listIiERKS0_
FN:733,738,_ZNSt6vectorIdSaIdEED2Ev
FN:733,738,_ZNSt6vectorIiSaIiEED2Ev
FN:788,793,_ZNSt6vectorIdSaIdEEaSESt16initializer_listIdE
FN:873,874,_ZNSt6vectorIiSaIiEE5beginEv
FN:883,884,_ZNKSt6vectorIiSaIiEE5beginEv
FN:893,894,_ZNSt6vectorIiSaIiEE3endEv
FN:903,904,_ZNKSt6vectorIiSaIiEE3endEv
FN:99,101,_ZNSt12_Vector_baseIdSaIdEE17_Vector_impl_dataC2Ev
FN:99,101,_ZNSt12_Vector_baseIiSaIiEE17_Vector_impl_dataC2Ev
FN:992,993,_ZNKSt6vectorIdSaIdEE4sizeEv
FN:992,993,_ZNKSt6vectorIiSaIiEE4sizeEv
FN:998,999,_ZNKSt6vectorIiSaIiEE8max_sizeEv
FNDA:2,_ZNKSt6vectorIdSaIdEE8capacityEv
FNDA:12,_ZNKSt6vectorIdSaIdEEixEm
FNDA:18,_ZNSt6vectorIiSaIiEE9push_backERKi
FNDA:26,_ZNSt12_Vector_baseIiSaIiEE12_Vector_implC2Ev
FNDA:4,_ZNSt12_Vector_baseIdSaIdEE12_Vector_implC2ERKS0_
FNDA:3,_ZNSt12_Vector_baseIiSaIiEE12_Vector_implC2ERKS0_
FNDA:2,_ZNSt6vectorIdSaIdEE20_M_allocate_and_copyIPKdEEPdmT_S6_
FNDA:4,_ZNSt6vectorIdSaIdEE19_M_range_initializeIPKdEEvT_S5_St20forward_iterator_tag
FNDA:3,_ZNSt6vectorIiSaIiEE19_M_range_initializeIPKiEEvT_S5_St20forward_iterator_tag
FNDA:55,_ZNKSt6vectorIiSaIiEE12_M_check_lenEmPKc
FNDA:6,_ZNSt6vectorIdSaIdEE17_S_check_init_lenEmRKS0_
FNDA:3,_ZNSt6vectorIiSaIiEE17_S_check_init_lenEmRKS0_
FNDA:6,_ZNSt6vectorIdSaIdEE11_S_max_sizeERKS0_
FNDA:116,_ZNSt6vectorIiSaIiEE11_S_max_sizeERKS0_
FNDA:0,_ZNSt6vectorIdSaIdEE15_M_erase_at_endEPd
FNDA:3,_ZSteqIiSaIiEEbRKSt6vectorIT_T0_ES6_
FNDA:18,_ZNSt12_Vector_baseIdSaIdEE19_M_get_Tp_allocatorEv
FNDA:154,_ZNSt12_Vector_baseIiSaIiEE19_M_get_Tp_allocatorEv
FNDA:110,_ZNKSt12_Vector_baseIiSaIiEE19_M_get_Tp_allocatorEv
FNDA:26,_ZNSt12_Vector_baseIiSaIiEEC2Ev
FNDA:4,_ZNSt12_Vector_baseIdSaIdEEC2ERKS0_
FNDA:3,_ZNSt12_Vector_baseIiSaIiEEC2ERKS0_
FNDA:4,_ZNSt12_Vector_baseIdSaIdEED2Ev
FNDA:32,_ZNSt12_Vector_baseIiSaIiEED2Ev
FNDA:6,_ZNSt12_Vector_baseIdSaIdEE11_M_allocateEm
FNDA:61,_ZNSt12_Vector_baseIiSaIiEE11_M_allocateEm
FNDA:6,_ZNSt12_Vector_baseIdSaIdEE13_M_deallocateEPdm
FNDA:87,_ZNSt12_Vector_baseIiSaIiEE13_M_deallocateEPim
FNDA:36,_ZNSt6vectorIiSaIiEE19_S_nothrow_relocateESt17integral_constantIbLb1EE
FNDA:36,_ZNSt6vectorIiSaIiEE15_S_use_relocateEv
FNDA:110,_ZNSt6vectorIiSaIiEE14_S_do_relocateEPiS2_S2_RS0_St17integral_constantIbLb1EE
FNDA:110,_ZNSt6vectorIiSaIiEE11_S_relocateEPiS2_S2_RS0_
FNDA:26,_ZNSt6vectorIiSaIiEEC2Ev
FNDA:4,_ZNSt6vectorIdSaIdEEC2ESt16initializer_listIdERKS0_
FNDA:3,_ZNSt6vectorIiSaIiEEC2ESt16initializer_listIiERKS0_
FNDA:4,_ZNSt6vectorIdSaIdEED2Ev
FNDA:32,_ZNSt6vectorIiSaIiEED2Ev
FNDA:2,_ZNSt6vectorIdSaIdEEaSESt16initializer_listIdE
FNDA:55,_ZNSt6vectorIiSaIiEE5beginEv
FNDA:6,_ZNKSt6vectorIiSaIiEE5beginEv
FNDA:100,_ZNSt6vectorIiSaIiEE3endEv
FNDA:3,_ZNKSt6vectorIiSaIiEE3endEv
FNDA:4,_ZNSt12_Vector_baseIdSaIdEE17_Vector_impl_dataC2Ev
FNDA:32,_ZNSt12_Vector_baseIiSaIiEE17_Vector_impl_dataC2Ev
FNDA:16,_ZNKSt6vectorIdSaIdEE4sizeEv
FNDA:367,_ZNKSt6vectorIiSaIiEE4sizeEv
FNDA:110,_ZNKSt6vectorIiSaIiEE8max_sizeEv
FNF:47
FNH:46
DA:99,36
DA:100,36
DA:101,36
DA:137,26
DA:142,26
DA:143,26
DA:146,7
DA:147,7
DA:148,7
DA:301,172
DA:302,172
DA:306,110
DA:307,110
DA:315,26
DA:321,7
DA:322,7
DA:367,36
DA:369,36
DA:370,36
DA:371,36
DA:378,67
DA:381,134
DA:386,93
DA:389,93
DA:390,67
DA:391,93
DA:470,36
DA:475,36
DA:483,36
DA:488,36
DA:492,110
DA:495,110
DA:504,110
DA:512,110
DA:531,26
DA:678,7
DA:680,7
DA:682,7
DA:683,7
DA:684,7
DA:733,36
DA:735,36
DA:736,36
DA:738,36
DA:788,2
DA:790,2
DA:791,2
DA:792,2
DA:873,55
DA:874,55
DA:883,6
DA:884,6
DA:893,100
DA:894,100
DA:903,3
DA:904,3
DA:992,383
DA:993,383
DA:998,110
DA:999,110
DA:1078,2
DA:1079,2
DA:1080,2
DA:1145,12
DA:1148,12
DA:1281,18
DA:1283,18
DA:1286,0
DA:1288,0
DA:1292,18
DA:1293,18
DA:1616,2
DA:1619,2
DA:1622,2
DA:1623,2
DA:1624,2
DA:1626,0
DA:1628,0
DA:1629,0
DA:1687,7
DA:1690,7
DA:1692,7
DA:1693,7
DA:1694,7
DA:1695,7
DA:1697,7
DA:1698,7
DA:1896,55
DA:1898,55
DA:1899,0
DA:1901,55
DA:1902,55
DA:1907,9
DA:1909,9
DA:1910,0
DA:1912,9
DA:1916,122
DA:1921,122
DA:1923,122
DA:1924,122
DA:1933,0
DA:1935,0
DA:1937,0
DA:1938,0
DA:1939,0
DA:1942,0
DA:2040,3
DA:2041,3
DA:2042,3
LF:109
LH:96
end_of_record
TN:
SF:/usr/include/c++/13/bits/unique_ptr.h
FN:197,197,_ZNSt15__uniq_ptr_implINSt7__cxx1112basic_stringIcSt11char_traitsIcESaIcEEESt14default_deleteIS5_EE6_M_ptrEv
FN:197,197,_ZNSt15__uniq_ptr_implINSt7__cxx1118basic_stringstreamIcSt11char_traitsIcESaIcEEESt14default_deleteIS5_EE6_M_ptrEv
FN:199,199,_ZNKSt15__uniq_ptr_implINSt7__cxx1112basic_stringIcSt11char_traitsIcESaIcEEESt14default_deleteIS5_EE6_M_ptrEv
FN:201,201,_ZNSt15__uniq_ptr_implINSt7__cxx1112basic_stringIcSt11char_traitsIcESaIcEEESt14default_deleteIS5_EE10_M_deleterEv
FN:201,201,_ZNSt15__uniq_ptr_implINSt7__cxx1118basic_stringstreamIcSt11char_traitsIcESaIcEEESt14default_deleteIS5_EE10_M_deleterEv
FN:398,406,_ZNSt10unique_ptrINSt7__cxx1112basic_stringIcSt11char_traitsIcESaIcEEESt14default_deleteIS5_EED2Ev
FN:398,406,_ZNSt10unique_ptrINSt7__cxx1118basic_stringstreamIcSt11char_traitsIcESaIcEEESt14default_deleteIS5_EED2Ev
FN:460,464,_ZNKSt10unique_ptrINSt7__cxx1112basic_stringIcSt11char_traitsIcESaIcEEESt14default_deleteIS5_EEptEv
FN:469,470,_ZNKSt10unique_ptrINSt7__cxx1112basic_stringIcSt11char_traitsIcESaIcEEESt14default_deleteIS5_EE3getEv
FN:475,476,_ZNSt10unique_ptrINSt7__cxx1112basic_stringIcSt11char_traitsIcESaIcEEESt14default_deleteIS5_EE11get_deleterEv
FN:475,476,_ZNSt10unique_ptrINSt7__cxx1118basic_stringstreamIcSt11char_traitsIcESaIcEEESt14default_deleteIS5_EE11get_deleterEv
FN:486,487,_ZNKSt10unique_ptrINSt7__cxx1112basic_stringIcSt11char_traitsIcESaIcEEESt14default_deleteIS5_EEcvbEv
FN:861,862,_ZStneINSt7__cxx1112basic_stringIcSt11char_traitsIcESaIcEEESt14default_deleteIS5_EEbRKSt10unique_ptrIT_T0_EDn
FN:93,100,_ZNKSt14default_deleteINSt7__cxx1112basic_stringIcSt11char_traitsIcESaIcEEEEclEPS5_
FN:93,100,_ZNKSt14default_deleteINSt7__cxx1118basic_stringstreamIcSt11char_traitsIcESaIcEEEEclEPS5_
FNDA:38,_ZNSt15__uniq_ptr_implINSt7__cxx1112basic_stringIcSt11char_traitsIcESaIcEEESt14default_deleteIS5_EE6_M_ptrEv
FNDA:188,_ZNSt15__uniq_ptr_implINSt7__cxx1118basic_stringstreamIcSt11char_traitsIcESaIcEEESt14default_deleteIS5_EE6_M_ptrEv
FNDA:0,_ZNKSt15__uniq_ptr_implINSt7__cxx1112basic_stringIcSt11char_traitsIcESaIcEEESt14default_deleteIS5_EE6_M_ptrEv
FNDA:0,_ZNSt15__uniq_ptr_implINSt7__cxx1112basic_stringIcSt11char_traitsIcESaIcEEESt14default_deleteIS5_EE10_M_deleterEv
FNDA:94,_ZNSt15__uniq_ptr_implINSt7__cxx1118basic_stringstreamIcSt11char_traitsIcESaIcEEESt14default_deleteIS5_EE10_M_deleterEv
FNDA:38,_ZNSt10unique_ptrINSt7__cxx1112basic_stringIcSt11char_traitsIcESaIcEEESt14default_deleteIS5_EED2Ev
FNDA:94,_ZNSt10unique_ptrINSt7__cxx1118basic_stringstreamIcSt11char_traitsIcESaIcEEESt14default_deleteIS5_EED2Ev
FNDA:0,_ZNKSt10unique_ptrINSt7__cxx1112basic_stringIcSt11char_traitsIcESaIcEEESt14default_deleteIS5_EEptEv
FNDA:0,_ZNKSt10unique_ptrINSt7__cxx1112basic_stringIcSt11char_traitsIcESaIcEEESt14default_deleteIS5_EE3getEv
FNDA:0,_ZNSt10unique_ptrINSt7__cxx1112basic_stringIcSt11char_traitsIcESaIcEEESt14default_deleteIS5_EE11get_deleterEv
FNDA:94,_ZNSt10unique_ptrINSt7__cxx1118basic_stringstreamIcSt11char_traitsIcESaIcEEESt14default_deleteIS5_EE11get_deleterEv
FNDA:0,_ZNKSt10unique_ptrINSt7__cxx1112basic_stringIcSt11char_traitsIcESaIcEEESt14default_deleteIS5_EEcvbEv
FNDA:0,_ZStneINSt7__cxx1112basic_stringIcSt11char_traitsIcESaIcEEESt14default_deleteIS5_EEbRKSt10unique_ptrIT_T0_EDn
FNDA:0,_ZNKSt14default_deleteINSt7__cxx1112basic_stringIcSt11char_traitsIcESaIcEEEEclEPS5_
FNDA:94,_ZNKSt14default_deleteINSt7__cxx1118basic_stringstreamIcSt11char_traitsIcESaIcEEEEclEPS5_
FNF:15
FNH:7
DA:93,94
DA:99,94
DA:100,94
DA:197,226
DA:199,0
DA:201,94
DA:398,132
DA:402,132
DA:403,132
DA:404,94
DA:405,132
DA:406,132
DA:460,0
DA:463,0
DA:469,0
DA:470,0
DA:475,94
DA:476,94
DA:486,0
DA:487,0
DA:861,0
DA:862,0
LF:22
LH:13
end_of_record
TN:
SF:/usr/include/c++/13/bits/vector.tcc
FN:315,350,_ZNSt6vectorIdSaIdEE13_M_assign_auxIPKdEEvT_S5_St20forward_iterator_tag
FN:445,524,_ZNSt6vectorIiSaIiEE17_M_realloc_insertIJRKiEEEvN9__gnu_cxx17__normal_iteratorIPiS1_EEDpOT_
FNDA:2,_ZNSt6vectorIdSaIdEE13_M_assign_auxIPKdEEvT_S5_St20forward_iterator_tag
FNDA:18,_ZNSt6vectorIiSaIiEE17_M_realloc_insertIJRKiEEEvN9__gnu_cxx17__normal_iteratorIPiS1_EEDpOT_
FNF:2
FNH:2
DA:315,2
DA:319,2
DA:321,2
DA:323,2
DA:324,2
DA:325,2
DA:326,2
DA:328,2
DA:329,2
DA:330,2
DA:331,2
DA:332,2
DA:333,2
DA:335,0
DA:336,0
DA:339,0
DA:340,0
DA:341,0
DA:342,0
DA:344,0
DA:345,0
DA:347,0
DA:350,2
DA:445,18
DA:455,18
DA:456,18
DA:457,18
DA:458,18
DA:459,18
DA:460,18
DA:468,18
DA:469,18
DA:475,18
DA:478,18
DA:480,18
DA:481,18
DA:483,18
DA:485,18
DA:486,18
DA:493,0
DA:494,0
DA:496,0
DA:500,0
DA:501,0
DA:504,0
DA:506,0
DA:507,0
DA:508,0
DA:510,0
DA:511,0
DA:512,0
DA:515,18
DA:517,0
DA:519,18
DA:520,18
DA:521,18
DA:522,18
DA:523,18
DA:524,18
LF:59
LH:37
end_of_record
TN:
SF:/usr/include/c++/13/initializer_list
FN:69,69,_ZNKSt16initializer_listIdE4sizeEv
FN:69,69,_ZNKSt16initializer_listIiE4sizeEv
FN:73,73,_ZNKSt16initializer_listIdE5beginEv
FN:73,73,_ZNKSt16initializer_listIiE5beginEv
FN:77,77,_ZNKSt16initializer_listIdE3endEv
FN:77,77,_ZNKSt16initializer_listIiE3endEv
FNDA:6,_ZNKSt16initializer_listIdE4sizeEv
FNDA:3,_ZNKSt16initializer_listIiE4sizeEv
FNDA:12,_ZNKSt16initializer_listIdE5beginEv
FNDA:6,_ZNKSt16initializer_listIiE5beginEv
FNDA:6,_ZNKSt16initializer_listIdE3endEv
FNDA:3,_ZNKSt16initializer_listIiE3endEv
FNF:6
FNH:6
DA:69,9
DA:73,18
DA:77,9
LF:3
LH:3
end_of_record
TN:
SF:/usr/include/c++/13/iomanip
FN:197,198,_ZSt12setprecisioni
FNDA:94,_ZSt12setprecisioni
FNF:1
FNH:1
DA:197,94
DA:198,94
LF:2
LH:2
end_of_record
TN:
SF:/usr/include/c++/13/new
FN:174,175,_ZnwmPv
FNDA:220,_ZnwmPv
FNF:1
FNH:1
DA:174,220
DA:175,220
LF:2
LH:2
end_of_record
TN:
SF:/usr/include/c++/13/tuple
FN:125,125,_ZNSt10_Head_baseILm1ESt14default_deleteINSt7__cxx1112basic_stringIcSt11char_traitsIcESaIcEEEELb1EE7_M_headERS8_
FN:125,125,_ZNSt10_Head_baseILm1ESt14default_deleteINSt7__cxx1118basic_stringstreamIcSt11char_traitsIcESaIcEEEELb1EE7_M_headERS8_
FN:1787,1788,_ZSt12__get_helperILm0EPNSt7__cxx1112basic_stringIcSt11char_traitsIcESaIcEEEJSt14default_deleteIS5_EEERT0_RSt11_Tuple_implIXT_EJS9_DpT1_EE
FN:1787,1788,_ZSt12__get_helperILm0EPNSt7__cxx1118basic_stringstreamIcSt11char_traitsIcESaIcEEEJSt14default_deleteIS5_EEERT0_RSt11_Tuple_implIXT_EJS9_DpT1_EE
FN:1787,1788,_ZSt12__get_helperILm1ESt14default_deleteINSt7__cxx1112basic_stringIcSt11char_traitsIcESaIcEEEEJEERT0_RSt11_Tuple_implIXT_EJS8_DpT1_EE
FN:1787,1788,_ZSt12__get_helperILm1ESt14default_deleteINSt7__cxx1118basic_stringstreamIcSt11char_traitsIcESaIcEEEEJEERT0_RSt11_Tuple_implIXT_EJS8_DpT1_EE
FN:1792,1793,_ZSt12__get_helperILm0EPNSt7__cxx1112basic_stringIcSt11char_traitsIcESaIcEEEJSt14default_deleteIS5_EEERKT0_RKSt11_Tuple_implIXT_EJS9_DpT1_EE
FN:1803,1804,_ZSt3getILm0EJPNSt7__cxx1112basic_stringIcSt11char_traitsIcESaIcEEESt14default_deleteIS5_EEERNSt13tuple_elementIXT_ESt5tupleIJDpT0_EEE4typeERSD_
FN:1803,1804,_ZSt3getILm0EJPNSt7__cxx1118basic_stringstreamIcSt11char_traitsIcESaIcEEESt14default_deleteIS5_EEERNSt13tuple_elementIXT_ESt5tupleIJDpT0_EEE4typeERSD_
FN:1803,1804,_ZSt3getILm1EJPNSt7__cxx1112basic_stringIcSt11char_traitsIcESaIcEEESt14default_deleteIS5_EEERNSt13tuple_elementIXT_ESt5tupleIJDpT0_EEE4typeERSD_
FN:1803,1804,_ZSt3getILm1EJPNSt7__cxx1118basic_stringstreamIcSt11char_traitsIcESaIcEEESt14default_deleteIS5_EEERNSt13tuple_elementIXT_ESt5tupleIJDpT0_EEE4typeERSD_
FN:1809,1810,_ZSt3getILm0EJPNSt7__cxx1112basic_stringIcSt11char_traitsIcESaIcEEESt14default_deleteIS5_EEERKNSt13tuple_elementIXT_ESt5tupleIJDpT0_EEE4typeERKSD_
FN:234,234,_ZNSt10_Head_baseILm0EPNSt7__cxx1112basic_stringIcSt11char_traitsIcESaIcEEELb0EE7_M_headERS7_
FN:234,234,_ZNSt10_Head_baseILm0EPNSt7__cxx1118basic_stringstreamIcSt11char_traitsIcESaIcEEELb0EE7_M_headERS7_
FN:237,237,_ZNSt10_Head_baseILm0EPNSt7__cxx1112basic_stringIcSt11char_traitsIcESaIcEEELb0EE7_M_headERKS7_
FN:269,269,_ZNSt11_Tuple_implILm0EJPNSt7__cxx1112basic_stringIcSt11char_traitsIcESaIcEEESt14default_deleteIS5_EEE7_M_headERS9_
FN:269,269,_ZNSt11_Tuple_implILm0EJPNSt7__cxx1118basic_stringstreamIcSt11char_traitsIcESaIcEEESt14default_deleteIS5_EEE7_M_headERS9_
FN:272,272,_ZNSt11_Tuple_implILm0EJPNSt7__cxx1112basic_stringIcSt11char_traitsIcESaIcEEESt14default_deleteIS5_EEE7_M_headERKS9_
FN:497,497,_ZNSt11_Tuple_implILm1EJSt14default_deleteINSt7__cxx1112basic_stringIcSt11char_traitsIcESaIcEEEEEE7_M_headERS8_
FN:497,497,_ZNSt11_Tuple_implILm1EJSt14default_deleteINSt7__cxx1118basic_stringstreamIcSt11char_traitsIcESaIcEEEEEE7_M_headERS8_
FNDA:0,_ZNSt10_Head_baseILm1ESt14default_deleteINSt7__cxx1112basic_stringIcSt11char_traitsIcESaIcEEEELb1EE7_M_headERS8_
FNDA:94,_ZNSt10_Head_baseILm1ESt14default_deleteINSt7__cxx1118basic_stringstreamIcSt11char_traitsIcESaIcEEEELb1EE7_M_headERS8_
FNDA:38,_ZSt12__get_helperILm0EPNSt7__cxx1112basic_stringIcSt11char_traitsIcESaIcEEEJSt14default_deleteIS5_EEERT0_RSt11_Tuple_implIXT_EJS9_DpT1_EE
FNDA:188,_ZSt12__get_helperILm0EPNSt7__cxx1118basic_stringstreamIcSt11char_traitsIcESaIcEEEJSt14default_deleteIS5_EEERT0_RSt11_Tuple_implIXT_EJS9_DpT1_EE
FNDA:0,_ZSt12__get_helperILm1ESt14default_deleteINSt7__cxx1112basic_stringIcSt11char_traitsIcESaIcEEEEJEERT0_RSt11_Tuple_implIXT_EJS8_DpT1_EE
FNDA:94,_ZSt12__get_helperILm1ESt14default_deleteINSt7__cxx1118basic_stringstreamIcSt11char_traitsIcESaIcEEEEJEERT0_RSt11_Tuple_implIXT_EJS8_DpT1_EE
FNDA:0,_ZSt12__get_helperILm0EPNSt7__cxx1112basic_stringIcSt11char_traitsIcESaIcEEEJSt14default_deleteIS5_EEERKT0_RKSt11_Tuple_implIXT_EJS9_DpT1_EE
FNDA:38,_ZSt3getILm0EJPNSt7__cxx1112basic_stringIcSt11char_traitsIcESaIcEEESt14default_deleteIS5_EEERNSt13tuple_elementIXT_ESt5tupleIJDpT0_EEE4typeERSD_
FNDA:188,_ZSt3getILm0EJPNSt7__cxx1118basic_stringstreamIcSt11char_traitsIcESaIcEEESt14default_deleteIS5_EEERNSt13tuple_elementIXT_ESt5tupleIJDpT0_EEE4typeERSD_
FNDA:0,_ZSt3getILm1EJPNSt7__cxx1112basic_stringIcSt11char_traitsIcESaIcEEESt14default_deleteIS5_EEERNSt13tuple_elementIXT_ESt5tupleIJDpT0_EEE4typeERSD_
FNDA:94,_ZSt3getILm1EJPNSt7__cxx1118basic_stringstreamIcSt11char_traitsIcESaIcEEESt14default_deleteIS5_EEERNSt13tuple_elementIXT_ESt5tupleIJDpT0_EEE4typeERSD_
FNDA:0,_ZSt3getILm0EJPNSt7__cxx1112basic_stringIcSt11char_traitsIcESaIcEEESt14default_deleteIS5_EEERKNSt13tuple_elementIXT_ESt5tupleIJDpT0_EEE4typeERKSD_
FNDA:38,_ZNSt10_Head_baseILm0EPNSt7__cxx1112basic_stringIcSt11char_traitsIcESaIcEEELb0EE7_M_headERS7_
FNDA:188,_ZNSt10_Head_baseILm0EPNSt7__cxx1118basic_stringstreamIcSt11char_traitsIcESaIcEEELb0EE7_M_headERS7_
FNDA:0,_ZNSt10_Head_baseILm0EPNSt7__cxx1112basic_stringIcSt11char_traitsIcESaIcEEELb0EE7_M_headERKS7_
FNDA:38,_ZNSt11_Tuple_implILm0EJPNSt7__cxx1112basic_stringIcSt11char_traitsIcESaIcEEESt14default_deleteIS5_EEE7_M_headERS9_
FNDA:188,_ZNSt11_Tuple_implILm0EJPNSt7__cxx1118basic_stringstreamIcSt11char_traitsIcESaIcEEESt14default_deleteIS5_EEE7_M_headERS9_
FNDA:0,_ZNSt11_Tuple_implILm0EJPNSt7__cxx1112basic_stringIcSt11char_traitsIcESaIcEEESt14default_deleteIS5_EEE7_M_headERKS9_
FNDA:0,_ZNSt11_Tuple_implILm1EJSt14default_deleteINSt7__cxx1112basic_stringIcSt11char_traitsIcESaIcEEEEEE7_M_headERS8_
FNDA:94,_ZNSt11_Tuple_implILm1EJSt14default_deleteINSt7__cxx1118basic_stringstreamIcSt11char_traitsIcESaIcEEEEEE7_M_headERS8_
FNF:20
FNH:12
DA:125,94
DA:234,226
DA:237,0
DA:269,226
DA:272,0
DA:497,94
DA:1787,320
DA:1788,320
DA:1792,0
DA:1793,0
DA:1803,320
DA:1804,320
DA:1809,0
DA:1810,0
LF:14
LH:8
end_of_record
TN:
SF:/usr/include/c++/13/typeinfo
FN:103,104,_ZNKSt9type_info4nameEv
FNDA:0,_ZNKSt9type_info4nameEv
FNF:1
FNH:0
DA:103,0
DA:104,0
LF:2
LH:0
end_of_record
TN:
SF:/usr/local/include/gtest/gtest-assertion-result.h
FN:174,174,_ZNK7testing15AssertionResultcvbEv
FN:183,185,_ZNK7testing15AssertionResult7messageEv
FN:187,187,_ZNK7testing15AssertionResult15failure_messageEv
FNDA:38,_ZNK7testing15AssertionResultcvbEv
FNDA:0,_ZNK7testing15AssertionResult7messageEv
FNDA:0,_ZNK7testing15AssertionResult15failure_messageEv
FNF:3
FNH:1
DA:174,38
DA:183,0
DA:184,0
DA:187,0
LF:4
LH:1
end_of_record
TN:
SF:/usr/local/include/gtest/gtest-message.h
FNF:0
FNH:0
LF:0
LH:0
end_of_record
TN:
SF:/usr/local/include/gtest/gtest-printers.h
FN:1108,1113,_ZN7testing8internal14UniversalPrintISt6vectorIiSaIiEEEEvRKT_PSo
FN:1108,1113,_ZN7testing8internal14UniversalPrintIdEEvRKT_PSo
FN:1108,1113,_ZN7testing8internal14UniversalPrintIiEEvRKT_PSo
FN:1148,1152,_ZN7testing13PrintToStringISt6vectorIiSaIiEEEENSt7__cxx1112basic_stringIcSt11char_traitsIcESaIcEEERKT_
FN:1148,1152,_ZN7testing13PrintToStringIdEENSt7__cxx1112basic_stringIcSt11char_traitsIcESaIcEEERKT_
FN:1148,1152,_ZN7testing13PrintToStringIiEENSt7__cxx1112basic_stringIcSt11char_traitsIcESaIcEEERKT_
FN:141,164,_ZN7testing8internal16ContainerPrinter10PrintValueISt6vectorIiSaIiEEvEEvRKT_PSo
FN:221,226,_ZN7testing8internal52internal_stream_operator_without_lexical_name_lookup13StreamPrinter10PrintValueIivEEDTcvvlsdefp0_fp_ERKT_PSo
FN:326,337,_ZN7testing8internal17PrintWithFallbackISt6vectorIiSaIiEEEEvRKT_PSo
FN:326,337,_ZN7testing8internal17PrintWithFallbackIiEEvRKT_PSo
FN:357,359,_ZN7testing8internal19FormatForComparisonISt6vectorIiSaIiEES4_E6FormatB5cxx11ERKS4_
FN:357,359,_ZN7testing8internal19FormatForComparisonIddE6FormatB5cxx11ERKd
FN:357,359,_ZN7testing8internal19FormatForComparisonIiiE6FormatB5cxx11ERKi
FN:437,440,_ZN7testing8internal33FormatForComparisonFailureMessageISt6vectorIiSaIiEES4_EENSt7__cxx1112basic_stringIcSt11char_traitsIcESaIcEEERKT_RKT0_
FN:437,440,_ZN7testing8internal33FormatForComparisonFailureMessageIddEENSt7__cxx1112basic_stringIcSt11char_traitsIcESaIcEEERKT_RKT0_
FN:437,440,_ZN7testing8internal33FormatForComparisonFailureMessageIiiEENSt7__cxx1112basic_stringIcSt11char_traitsIcESaIcEEERKT_RKT0_
FN:464,466,_ZN7testing8internal7PrintToISt6vectorIiSaIiEEEEvRKT_PSo
FN:464,466,_ZN7testing8internal7PrintToIiEEvRKT_PSo
FN:529,577,_ZN7testing8internal21AppropriateResolutionIdEEiT_
FN:586,591,_ZN7testing8internal7PrintToEdPSo
FN:799,809,_ZN7testing8internal16UniversalPrinterISt6vectorIiSaIiEEE5PrintERKS4_PSo
FN:799,809,_ZN7testing8internal16UniversalPrinterIdE5PrintERKdPSo
FN:799,809,_ZN7testing8internal16UniversalPrinterIiE5PrintERKiPSo
FN:989,991,_ZN7testing8internal21UniversalTersePrinterISt6vectorIiSaIiEEE5PrintERKS4_PSo
FN:989,991,_ZN7testing8internal21UniversalTersePrinterIdE5PrintERKdPSo
FN:989,991,_ZN7testing8internal21UniversalTersePrinterIiE5PrintERKiPSo
FNDA:0,_ZN7testing8internal14UniversalPrintISt6vectorIiSaIiEEEEvRKT_PSo
FNDA:0,_ZN7testing8internal14UniversalPrintIdEEvRKT_PSo
FNDA:0,_ZN7testing8internal14UniversalPrintIiEEvRKT_PSo
FNDA:0,_ZN7testing13PrintToStringISt6vectorIiSaIiEEEENSt7__cxx1112basic_stringIcSt11char_traitsIcESaIcEEERKT_
FNDA:0,_ZN7testing13PrintToStringIdEENSt7__cxx1112basic_stringIcSt11char_traitsIcESaIcEEERKT_
FNDA:0,_ZN7testing13PrintToStringIiEENSt7__cxx1112basic_stringIcSt11char_traitsIcESaIcEEERKT_
FNDA:0,_ZN7testing8internal16ContainerPrinter10PrintValueISt6vectorIiSaIiEEvEEvRKT_PSo
FNDA:0,_ZN7testing8internal52internal_stream_operator_without_lexical_name_lookup13StreamPrinter10PrintValueIivEEDTcvvlsdefp0_fp_ERKT_PSo
FNDA:0,_ZN7testing8internal17PrintWithFallbackISt6vectorIiSaIiEEEEvRKT_PSo
FNDA:0,_ZN7testing8internal17PrintWithFallbackIiEEvRKT_PSo
FNDA:0,_ZN7testing8internal19FormatForComparisonISt6vectorIiSaIiEES4_E6FormatB5cxx11ERKS4_
FNDA:0,_ZN7testing8internal19FormatForComparisonIddE6FormatB5cxx11ERKd
FNDA:0,_ZN7testing8internal19FormatForComparisonIiiE6FormatB5cxx11ERKi
FNDA:0,_ZN7testing8internal33FormatForComparisonFailureMessageISt6vectorIiSaIiEES4_EENSt7__cxx1112basic_stringIcSt11char_traitsIcESaIcEEERKT_RKT0_
FNDA:0,_ZN7testing8internal33FormatForComparisonFailureMessageIddEENSt7__cxx1112basic_stringIcSt11char_traitsIcESaIcEEERKT_RKT0_
FNDA:0,_ZN7testing8internal33FormatForComparisonFailureMessageIiiEENSt7__cxx1112basic_stringIcSt11char_traitsIcESaIcEEERKT_RKT0_
FNDA:0,_ZN7testing8internal7PrintToISt6vectorIiSaIiEEEEvRKT_PSo
FNDA:0,_ZN7testing8internal7PrintToIiEEvRKT_PSo
FNDA:0,_ZN7testing8internal21AppropriateResolutionIdEEiT_
FNDA:0,_ZN7testing8internal7PrintToEdPSo
FNDA:0,_ZN7testing8internal16UniversalPrinterISt6vectorIiSaIiEEE5PrintERKS4_PSo
FNDA:0,_ZN7testing8internal16UniversalPrinterIdE5PrintERKdPSo
FNDA:0,_ZN7testing8internal16UniversalPrinterIiE5PrintERKiPSo
FNDA:0,_ZN7testing8internal21UniversalTersePrinterISt6vectorIiSaIiEEE5PrintERKS4_PSo
FNDA:0,_ZN7testing8internal21UniversalTersePrinterIdE5PrintERKdPSo
FNDA:0,_ZN7testing8internal21UniversalTersePrinterIiE5PrintERKiPSo
FNF:26
FNH:0
DA:141,0
DA:142,0
DA:143,0
DA:144,0
DA:145,0
DA:146,0
DA:147,0
DA:148,0
DA:149,0
DA:150,0
DA:153,0
DA:156,0
DA:157,0
DA:160,0
DA:161,0
DA:163,0
DA:164,0
DA:221,0
DA:225,0
DA:226,0
DA:326,0
DA:336,0
DA:337,0
DA:357,0
DA:358,0
DA:437,0
DA:439,0
DA:464,0
DA:465,0
DA:466,0
DA:529,0
DA:530,0
DA:531,0
DA:533,0
DA:534,0
DA:535,0
DA:536,0
DA:537,0
DA:538,0
DA:539,0
DA:540,0
DA:541,0
DA:542,0
DA:543,0
DA:544,0
DA:545,0
DA:546,0
DA:547,0
DA:548,0
DA:549,0
DA:550,0
DA:551,0
DA:552,0
DA:553,0
DA:554,0
DA:556,0
DA:559,0
DA:560,0
DA:561,0
DA:562,0
DA:563,0
DA:564,0
DA:565,0
DA:566,0
DA:567,0
DA:568,0
DA:569,0
DA:571,0
DA:574,0
DA:576,0
DA:586,0
DA:587,0
DA:588,0
DA:589,0
DA:590,0
DA:591,0
DA:799,0
DA:808,0
DA:809,0
DA:989,0
DA:990,0
DA:991,0
DA:1108,0
DA:1112,0
DA:1113,0
DA:1148,0
DA:1149,0
DA:1150,0
DA:1151,0
DA:1152,0
LF:90
LH:0
end_of_record
TN:
SF:/usr/local/include/gtest/gtest.h
FN:1359,1365,_ZN7testing8internal18CmpHelperEQFailureISt6vectorIiSaIiEES4_EENS_15AssertionResultEPKcS7_RKT_RKT0_
FN:1359,1365,_ZN7testing8internal18CmpHelperEQFailureIddEENS_15AssertionResultEPKcS4_RKT_RKT0_
FN:1359,1365,_ZN7testing8internal18CmpHelperEQFailureIiiEENS_15AssertionResultEPKcS4_RKT_RKT0_
FN:1376,1384,_ZN7testing8internal11CmpHelperEQISt6vectorIiSaIiEES4_EENS_15AssertionResultEPKcS7_RKT_RKT0_
FN:1376,1384,_ZN7testing8internal11CmpHelperEQIddEENS_15AssertionResultEPKcS4_RKT_RKT0_
FN:1376,1384,_ZN7testing8internal11CmpHelperEQIiiEENS_15AssertionResultEPKcS4_RKT_RKT0_
FN:1395,1399,_ZN7testing8internal8EqHelper7CompareISt6vectorIiSaIiEES5_LPv0EEENS_15AssertionResultEPKcS9_RKT_RKT0_
FN:1395,1399,_ZN7testing8internal8EqHelper7CompareIddLPv0EEENS_15AssertionResultEPKcS6_RKT_RKT0_
FN:1395,1399,_ZN7testing8internal8EqHelper7CompareIiiLPv0EEENS_15AssertionResultEPKcS6_RKT_RKT0_
FN:1567,1587,_ZN7testing8internal24CmpHelperFloatingPointEQIdEENS_15AssertionResultEPKcS4_T_S5_
FN:256,256,_ZN7testing4Test14SetUpTestSuiteEv
FN:264,264,_ZN7testing4Test17TearDownTestSuiteEv
FN:269,269,_ZN7testing4Test16TearDownTestCaseEv
FN:270,270,_ZN7testing4Test13SetUpTestCaseEv
FN:357,357,_ZN7testing4Test5SetupEv
FNDA:0,_ZN7testing8internal18CmpHelperEQFailureISt6vectorIiSaIiEES4_EENS_15AssertionResultEPKcS7_RKT_RKT0_
FNDA:0,_ZN7testing8internal18CmpHelperEQFailureIddEENS_15AssertionResultEPKcS4_RKT_RKT0_
FNDA:0,_ZN7testing8internal18CmpHelperEQFailureIiiEENS_15AssertionResultEPKcS4_RKT_RKT0_
FNDA:3,_ZN7testing8internal11CmpHelperEQISt6vectorIiSaIiEES4_EENS_15AssertionResultEPKcS7_RKT_RKT0_
FNDA:3,_ZN7testing8internal11CmpHelperEQIddEENS_15AssertionResultEPKcS4_RKT_RKT0_
FNDA:19,_ZN7testing8internal11CmpHelperEQIiiEENS_15AssertionResultEPKcS4_RKT_RKT0_
FNDA:3,_ZN7testing8internal8EqHelper7CompareISt6vectorIiSaIiEES5_LPv0EEENS_15AssertionResultEPKcS9_RKT_RKT0_
FNDA:3,_ZN7testing8internal8EqHelper7CompareIddLPv0EEENS_15AssertionResultEPKcS6_RKT_RKT0_
FNDA:19,_ZN7testing8internal8EqHelper7CompareIiiLPv0EEENS_15AssertionResultEPKcS6_RKT_RKT0_
FNDA:6,_ZN7testing8internal24CmpHelperFloatingPointEQIdEENS_15AssertionResultEPKcS4_T_S5_
FNDA:0,_ZN7testing4Test14SetUpTestSuiteEv
FNDA:0,_ZN7testing4Test17TearDownTestSuiteEv
FNDA:0,_ZN7testing4Test16TearDownTestCaseEv
FNDA:0,_ZN7testing4Test13SetUpTestCaseEv
FNDA:0,_ZN7testing4Test5SetupEv
FNF:15
FNH:7
DA:256,0
DA:264,0
DA:269,0
DA:270,0
DA:357,0
DA:1359,0
DA:1364,0
DA:1376,25
DA:1379,25
DA:1380,25
DA:1383,0
DA:1395,25
DA:1398,25
DA:1567,6
DA:1570,6
DA:1572,6
DA:1573,6
DA:1576,0
DA:1577,0
DA:1578,0
DA:1580,0
DA:1581,0
DA:1582,0
DA:1586,0
DA:1587,0
LF:25
LH:9
end_of_record
TN:
SF:/usr/local/include/gtest/internal/gtest-internal.h
FN:294,294,_ZN7testing8internal13FloatingPointIdEC2ERKd
FN:316,316,_ZNK7testing8internal13FloatingPointIdE13exponent_bitsEv
FN:319,319,_ZNK7testing8internal13FloatingPointIdE13fraction_bitsEv
FN:325,329,_ZNK7testing8internal13FloatingPointIdE6is_nanEv
FN:337,344,_ZNK7testing8internal13FloatingPointIdE12AlmostEqualsERKS2_
FN:368,376,_ZN7testing8internal13FloatingPointIdE24SignAndMagnitudeToBiasedERKm
FN:380,385,_ZN7testing8internal13FloatingPointIdE38DistanceBetweenSignAndMagnitudeNumbersERKmS4_
FN:438,438,_ZN7testing8internal15TestFactoryBaseD0Ev
FN:438,438,_ZN7testing8internal15TestFactoryBaseD2Ev
FN:445,445,_ZN7testing8internal15TestFactoryBaseC2Ev
FN:457,457,_ZN7testing8internal15TestFactoryImplI17GCD_EdgeTest_TestE10CreateTestEv
FN:457,457,_ZN7testing8internal15TestFactoryImplI17LCM_EdgeTest_TestE10CreateTestEv
FN:457,457,_ZN7testing8internal15TestFactoryImplI18ReLU_EdgeTest_TestE10CreateTestEv
FN:457,457,_ZN7testing8internal15TestFactoryImplI19GCD_NormalTest_TestE10CreateTestEv
FN:457,457,_ZN7testing8internal15TestFactoryImplI19LCM_NormalTest_TestE10CreateTestEv
FN:457,457,_ZN7testing8internal15TestFactoryImplI20ReLU_NormalTest_TestE10CreateTestEv
FN:457,457,_ZN7testing8internal15TestFactoryImplI21Sigmoid_EdgeTest_TestE10CreateTestEv
FN:457,457,_ZN7testing8internal15TestFactoryImplI23Factorial_EdgeTest_TestE10CreateTestEv
FN:457,457,_ZN7testing8internal15TestFactoryImplI23Fibonacci_EdgeTest_TestE10CreateTestEv
FN:457,457,_ZN7testing8internal15TestFactoryImplI23Sigmoid_NormalTest_TestE10CreateTestEv
FN:457,457,_ZN7testing8internal15TestFactoryImplI25CalculatePi_EdgeTest_TestE10CreateTestEv
FN:457,457,_ZN7testing8internal15TestFactoryImplI25Factorial_NormalTest_TestE10CreateTestEv
FN:457,457,_ZN7testing8internal15TestFactoryImplI25Fibonacci_NormalTest_TestE10CreateTestEv
FN:457,457,_ZN7testing8internal15TestFactoryImplI26PrimeFactors_EdgeTest_TestE10CreateTestEv
FN:457,457,_ZN7testing8internal15TestFactoryImplI27CalculatePi_NormalTest_TestE10CreateTestEv
FN:457,457,_ZN7testing8internal15TestFactoryImplI28PrimeFactors_NormalTest_TestE10CreateTestEv
FN:457,457,_ZN7testing8internal15TestFactoryImplI30MeanSquaredError_EdgeTest_TestE10CreateTestEv
FN:457,457,_ZN7testing8internal15TestFactoryImplI32MeanSquaredError_NormalTest_TestE10CreateTestEv
FN:478,479,_ZN7testing8internal12CodeLocationC2ERKNSt7__cxx1112basic_stringIcSt11char_traitsIcESaIcEEEi
FN:491,494,_ZN7testing8internal19GetNotDefaultOrNullEPFvvES2_
FN:506,525,_ZN7testing8internal16SuiteApiResolverINS_4TestEE19GetSetUpCaseOrSuiteEPKci
FN:527,546,_ZN7testing8internal16SuiteApiResolverINS_4TestEE22GetTearDownCaseOrSuiteEPKci
FN:843,843,_ZN7testing8internal14TrueWithStringC2Ev
FN:846,846,_ZNK7testing8internal14TrueWithStringcvbEv
FNDA:12,_ZN7testing8internal13FloatingPointIdEC2ERKd
FNDA:12,_ZNK7testing8internal13FloatingPointIdE13exponent_bitsEv
FNDA:0,_ZNK7testing8internal13FloatingPointIdE13fraction_bitsEv
FNDA:12,_ZNK7testing8internal13FloatingPointIdE6is_nanEv
FNDA:6,_ZNK7testing8internal13FloatingPointIdE12AlmostEqualsERKS2_
FNDA:12,_ZN7testing8internal13FloatingPointIdE24SignAndMagnitudeToBiasedERKm
FNDA:6,_ZN7testing8internal13FloatingPointIdE38DistanceBetweenSignAndMagnitudeNumbersERKmS4_
FNDA:0,_ZN7testing8internal15TestFactoryBaseD0Ev
FNDA:18,_ZN7testing8internal15TestFactoryBaseD2Ev
FNDA:18,_ZN7testing8internal15TestFactoryBaseC2Ev
FNDA:1,_ZN7testing8internal15TestFactoryImplI17GCD_EdgeTest_TestE10CreateTestEv
FNDA:1,_ZN7testing8internal15TestFactoryImplI17LCM_EdgeTest_TestE10CreateTestEv
FNDA:1,_ZN7testing8internal15TestFactoryImplI18ReLU_EdgeTest_TestE10CreateTestEv
FNDA:1,_ZN7testing8internal15TestFactoryImplI19GCD_NormalTest_TestE10CreateTestEv
FNDA:1,_ZN7testing8internal15TestFactoryImplI19LCM_NormalTest_TestE10CreateTestEv
FNDA:1,_ZN7testing8internal15TestFactoryImplI20ReLU_NormalTest_TestE10CreateTestEv
FNDA:1,_ZN7testing8internal15TestFactoryImplI21Sigmoid_EdgeTest_TestE10CreateTestEv
FNDA:1,_ZN7testing8internal15TestFactoryImplI23Factorial_EdgeTest_TestE10CreateTestEv
FNDA:1,_ZN7testing8internal15TestFactoryImplI23Fibonacci_EdgeTest_TestE10CreateTestEv
FNDA:1,_ZN7testing8internal15TestFactoryImplI23Sigmoid_NormalTest_TestE10CreateTestEv
FNDA:1,_ZN7testing8internal15TestFactoryImplI25CalculatePi_EdgeTest_TestE10CreateTestEv
FNDA:1,_ZN7testing8internal15TestFactoryImplI25Factorial_NormalTest_TestE10CreateTestEv
FNDA:1,_ZN7testing8internal15TestFactoryImplI25Fibonacci_NormalTest_TestE10CreateTestEv
FNDA:1,_ZN7testing8internal15TestFactoryImplI26PrimeFactors_EdgeTest_TestE10CreateTestEv
FNDA:1,_ZN7testing8internal15TestFactoryImplI27CalculatePi_NormalTest_TestE10CreateTestEv
FNDA:1,_ZN7testing8internal15TestFactoryImplI28PrimeFactors_NormalTest_TestE10CreateTestEv
FNDA:1,_ZN7testing8internal15TestFactoryImplI30MeanSquaredError_EdgeTest_TestE10CreateTestEv
FNDA:1,_ZN7testing8internal15TestFactoryImplI32MeanSquaredError_NormalTest_TestE10CreateTestEv
FNDA:18,_ZN7testing8internal12CodeLocationC2ERKNSt7__cxx1112basic_stringIcSt11char_traitsIcESaIcEEEi
FNDA:72,_ZN7testing8internal19GetNotDefaultOrNullEPFvvES2_
FNDA:18,_ZN7testing8internal16SuiteApiResolverINS_4TestEE19GetSetUpCaseOrSuiteEPKci
FNDA:18,_ZN7testing8internal16SuiteApiResolverINS_4TestEE22GetTearDownCaseOrSuiteEPKci
FNDA:12,_ZN7testing8internal14TrueWithStringC2Ev
FNDA:12,_ZNK7testing8internal14TrueWithStringcvbEv
FNF:34
FNH:32
DA:294,12
DA:316,12
DA:319,0
DA:325,12
DA:328,12
DA:337,6
DA:340,6
DA:342,6
DA:343,6
DA:368,12
DA:369,12
DA:371,0
DA:374,12
DA:380,6
DA:382,6
DA:383,6
DA:384,6
DA:438,18
DA:445,18
DA:457,18
DA:478,18
DA:479,18
DA:491,72
DA:493,72
DA:506,18
DA:510,18
DA:512,18
DA:514,18
DA:517,0
DA:519,18
DA:527,18
DA:531,18
DA:533,18
DA:535,18
DA:538,0
DA:540,18
DA:843,12
DA:846,12
LF:38
LH:34
end_of_record
TN:
SF:/usr/local/include/gtest/internal/gtest-port.h
FN:1042,1042,_ZN7testing8internal8GTestLog9GetStreamEv
FNDA:0,_ZN7testing8internal8GTestLog9GetStreamEv
FNF:1
FNH:0
DA:1042,0
LF:1
LH:0
end_of_record
TN:
SF:/usr/local/include/gtest/internal/gtest-type-util.h
FN:61,87,_ZN7testing8internal31CanonicalizeForStdLibVersioningENSt7__cxx1112basic_stringIcSt11char_traitsIcESaIcEEE
FN:91,121,_ZN7testing8internal11GetTypeNameB5cxx11ERKSt9type_info
FNDA:0,_ZN7testing8internal31CanonicalizeForStdLibVersioningENSt7__cxx1112basic_stringIcSt11char_traitsIcESaIcEEE
FNDA:0,_ZN7testing8internal11GetTypeNameB5cxx11ERKSt9type_info
FNF:2
FNH:0
DA:61,0
DA:63,0
DA:64,0
DA:65,0
DA:67,0
DA:75,0
DA:78,0
DA:79,0
DA:80,0
DA:83,0
DA:84,0
DA:86,0
DA:91,0
DA:92,0
DA:94,0
DA:100,0
DA:101,0
DA:102,0
DA:103,0
DA:121,0
LF:20
LH:0
end_of_record
