TN:
SF:/mnt/d/gtest_codecoverage/src/my_math.cpp
FN:15,24,_ZN6MyMath9fibonacciEi
FN:26,35,_ZN6MyMath3gcdEii
FN:37,46,_ZN6MyMath3lcmEii
FN:4,13,_ZN6MyMath9factorialEi
FN:48,63,_ZN6MyMath13prime_factorsEi
FN:65,75,_ZN6MyMath12calculate_piEi
FN:77,79,_ZN6MyMath7sigmoidEd
FN:81,83,_ZN6MyMath4reluEd
FN:85,98,_ZN6MyMath18mean_squared_errorERKSt6vectorIdSaIdEES4_
FNDA:32,_ZN6MyMath9fibonacciEi
FNDA:25,_ZN6MyMath3gcdEii
FNDA:6,_ZN6MyMath3lcmEii
FNDA:20,_ZN6MyMath9factorialEi
FNDA:5,_ZN6MyMath13prime_factorsEi
FNDA:4,_ZN6MyMath12calculate_piEi
FNDA:3,_ZN6MyMath7sigmoidEd
FNDA:3,_ZN6MyMath4reluEd
FNDA:3,_ZN6MyMath18mean_squared_errorERKSt6vectorIdSaIdEES4_
FNF:9
FNH:9
DA:4,20
DA:5,20
DA:6,2
DA:8,18
DA:9,4
DA:11,14
DA:15,32
DA:16,32
DA:17,1
DA:19,31
DA:20,18
DA:22,13
DA:26,25
DA:27,25
DA:28,1
DA:30,24
DA:31,8
DA:33,16
DA:37,6
DA:38,6
DA:39,1
DA:41,5
DA:42,2
DA:44,3
DA:48,5
DA:49,5
DA:50,2
DA:52,3
DA:53,6
DA:54,6
DA:55,3
DA:56,3
DA:59,3
DA:60,3
DA:62,3
DA:63,0
DA:65,4
DA:66,4
DA:67,2
DA:69,2
DA:70,1102
DA:71,1100
DA:72,1100
DA:74,2
DA:77,3
DA:78,3
DA:81,3
DA:82,3
DA:85,3
DA:87,3
DA:88,1
DA:91,2
DA:92,9
DA:93,7
DA:94,7
DA:97,2
LF:56
LH:55
end_of_record
TN:
SF:/mnt/d/gtest_codecoverage/tests/test_my_program.cpp
FN:15,15,_ZN29MyMathTest_FibonacciTest_Test8TestBodyEv
FN:15,15,_ZN29MyMathTest_FibonacciTest_TestC2Ev
FN:15,15,_ZN29MyMathTest_FibonacciTest_TestD0Ev
FN:15,15,_ZN29MyMathTest_FibonacciTest_TestD2Ev
FN:25,25,_ZN23MyMathTest_GcdTest_Test8TestBodyEv
FN:25,25,_ZN23MyMathTest_GcdTest_TestC2Ev
FN:25,25,_ZN23MyMathTest_GcdTest_TestD0Ev
FN:25,25,_ZN23MyMathTest_GcdTest_TestD2Ev
FN:35,35,_ZN23MyMathTest_LcmTest_Test8TestBodyEv
FN:35,35,_ZN23MyMathTest_LcmTest_TestC2Ev
FN:35,35,_ZN23MyMathTest_LcmTest_TestD0Ev
FN:35,35,_ZN23MyMathTest_LcmTest_TestD2Ev
FN:4,4,_ZN29MyMathTest_FactorialTest_Test8TestBodyEv
FN:4,4,_ZN29MyMathTest_FactorialTest_TestC2Ev
FN:4,4,_ZN29MyMathTest_FactorialTest_TestD0Ev
FN:4,4,_ZN29MyMathTest_FactorialTest_TestD2Ev
FN:45,45,_ZN32MyMathTest_PrimeFactorsTest_Test8TestBodyEv
FN:45,45,_ZN32MyMathTest_PrimeFactorsTest_TestC2Ev
FN:45,45,_ZN32MyMathTest_PrimeFactorsTest_TestD0Ev
FN:45,45,_ZN32MyMathTest_PrimeFactorsTest_TestD2Ev
FN:60,60,_ZN33MyMathTest_PiCalculationTest_Test8TestBodyEv
FN:60,60,_ZN33MyMathTest_PiCalculationTest_TestC2Ev
FN:60,60,_ZN33MyMathTest_PiCalculationTest_TestD0Ev
FN:60,60,_ZN33MyMathTest_PiCalculationTest_TestD2Ev
FN:68,68,_ZN27MyMathTest_SigmoidTest_Test8TestBodyEv
FN:68,68,_ZN27MyMathTest_SigmoidTest_TestC2Ev
FN:68,68,_ZN27MyMathTest_SigmoidTest_TestD0Ev
FN:68,68,_ZN27MyMathTest_SigmoidTest_TestD2Ev
FN:74,78,_ZN24MyMathTest_ReluTest_Test8TestBodyEv
FN:74,78,_ZN24MyMathTest_ReluTest_TestC2Ev
FN:74,78,_ZN24MyMathTest_ReluTest_TestD0Ev
FN:74,78,_ZN24MyMathTest_ReluTest_TestD2Ev
FN:80,80,_ZN36MyMathTest_MeanSquaredErrorTest_Test8TestBodyEv
FN:80,80,_ZN36MyMathTest_MeanSquaredErrorTest_TestC2Ev
FN:80,80,_ZN36MyMathTest_MeanSquaredErrorTest_TestD0Ev
FN:80,80,_ZN36MyMathTest_MeanSquaredErrorTest_TestD2Ev
FNDA:1,_ZN29MyMathTest_FibonacciTest_Test8TestBodyEv
FNDA:1,_ZN29MyMathTest_FibonacciTest_TestC2Ev
FNDA:1,_ZN29MyMathTest_FibonacciTest_TestD0Ev
FNDA:1,_ZN29MyMathTest_FibonacciTest_TestD2Ev
FNDA:1,_ZN23MyMathTest_GcdTest_Test8TestBodyEv
FNDA:1,_ZN23MyMathTest_GcdTest_TestC2Ev
FNDA:1,_ZN23MyMathTest_GcdTest_TestD0Ev
FNDA:1,_ZN23MyMathTest_GcdTest_TestD2Ev
FNDA:1,_ZN23MyMathTest_LcmTest_Test8TestBodyEv
FNDA:1,_ZN23MyMathTest_LcmTest_TestC2Ev
FNDA:1,_ZN23MyMathTest_LcmTest_TestD0Ev
FNDA:1,_ZN23MyMathTest_LcmTest_TestD2Ev
FNDA:1,_ZN29MyMathTest_FactorialTest_Test8TestBodyEv
FNDA:1,_ZN29MyMathTest_FactorialTest_TestC2Ev
FNDA:1,_ZN29MyMathTest_FactorialTest_TestD0Ev
FNDA:1,_ZN29MyMathTest_FactorialTest_TestD2Ev
FNDA:1,_ZN32MyMathTest_PrimeFactorsTest_Test8TestBodyEv
FNDA:1,_ZN32MyMathTest_PrimeFactorsTest_TestC2Ev
FNDA:1,_ZN32MyMathTest_PrimeFactorsTest_TestD0Ev
FNDA:1,_ZN32MyMathTest_PrimeFactorsTest_TestD2Ev
FNDA:1,_ZN33MyMathTest_PiCalculationTest_Test8TestBodyEv
FNDA:1,_ZN33MyMathTest_PiCalculationTest_TestC2Ev
FNDA:1,_ZN33MyMathTest_PiCalculationTest_TestD0Ev
FNDA:1,_ZN33MyMathTest_PiCalculationTest_TestD2Ev
FNDA:1,_ZN27MyMathTest_SigmoidTest_Test8TestBodyEv
FNDA:1,_ZN27MyMathTest_SigmoidTest_TestC2Ev
FNDA:1,_ZN27MyMathTest_SigmoidTest_TestD0Ev
FNDA:1,_ZN27MyMathTest_SigmoidTest_TestD2Ev
FNDA:1,_ZN24MyMathTest_ReluTest_Test8TestBodyEv
FNDA:1,_ZN24MyMathTest_ReluTest_TestC2Ev
FNDA:1,_ZN24MyMathTest_ReluTest_TestD0Ev
FNDA:1,_ZN24MyMathTest_ReluTest_TestD2Ev
FNDA:1,_ZN36MyMathTest_MeanSquaredErrorTest_Test8TestBodyEv
FNDA:1,_ZN36MyMathTest_MeanSquaredErrorTest_TestC2Ev
FNDA:1,_ZN36MyMathTest_MeanSquaredErrorTest_TestD0Ev
FNDA:1,_ZN36MyMathTest_MeanSquaredErrorTest_TestD2Ev
FNF:36
FNH:36
DA:4,4
DA:5,1
DA:6,1
DA:7,1
DA:9,1
DA:10,1
DA:11,1
DA:13,1
DA:15,4
DA:16,1
DA:17,1
DA:18,1
DA:20,1
DA:21,1
DA:22,1
DA:23,1
DA:25,4
DA:26,1
DA:27,1
DA:28,1
DA:30,1
DA:31,1
DA:32,1
DA:33,1
DA:35,4
DA:36,1
DA:37,1
DA:38,1
DA:40,1
DA:41,1
DA:42,1
DA:43,1
DA:45,4
DA:46,2
DA:47,1
DA:49,3
DA:50,1
DA:52,3
DA:53,1
DA:55,1
DA:56,1
DA:58,1
DA:60,4
DA:61,1
DA:62,1
DA:64,1
DA:65,1
DA:66,1
DA:68,4
DA:69,1
DA:70,1
DA:71,1
DA:72,1
DA:74,4
DA:75,1
DA:76,1
DA:77,1
DA:78,1
DA:80,4
DA:81,2
DA:82,2
DA:83,1
DA:85,1
DA:86,1
DA:87,1
DA:89,1
DA:90,1
DA:91,1
DA:93,1
LF:69
LH:69
end_of_record
TN:
SF:/usr/include/c++/13/bits/alloc_traits.h
FNF:0
FNH:0
DA:482,13
DA:517,13
DA:538,6
DA:542,6
DA:574,19
DA:948,12
DA:949,12
LF:7
LH:7
end_of_record
TN:
SF:/usr/include/c++/13/bits/allocator.h
FNF:0
FNH:0
DA:163,8
DA:168,12
DA:184,12
LF:3
LH:3
end_of_record
TN:
SF:/usr/include/c++/13/bits/basic_string.h
FN:641,650,_ZNSt7__cxx1112basic_stringIcSt11char_traitsIcESaIcEEC2IS3_EEPKcRKS3_
FNDA:9,_ZNSt7__cxx1112basic_stringIcSt11char_traitsIcESaIcEEC2IS3_EEPKcRKS3_
FNF:1
FNH:1
DA:355,0
DA:641,9
DA:642,9
DA:645,9
DA:646,0
DA:648,9
DA:649,9
DA:650,9
LF:8
LH:6
end_of_record
TN:
SF:/usr/include/c++/13/bits/basic_string.tcc
FN:221,252,_ZNSt7__cxx1112basic_stringIcSt11char_traitsIcESaIcEE12_M_constructIPKcEEvT_S8_St20forward_iterator_tag
FN:221,252,_ZNSt7__cxx1112basic_stringIcSt11char_traitsIcESaIcEE12_M_constructIPcEEvT_S7_St20forward_iterator_tag
FN:239,239,_ZZNSt7__cxx1112basic_stringIcSt11char_traitsIcESaIcEE12_M_constructIPKcEEvT_S8_St20forward_iterator_tagEN6_GuardC2EPS4_
FN:239,239,_ZZNSt7__cxx1112basic_stringIcSt11char_traitsIcESaIcEE12_M_constructIPcEEvT_S7_St20forward_iterator_tagEN6_GuardC2EPS4_
FN:242,242,_ZZNSt7__cxx1112basic_stringIcSt11char_traitsIcESaIcEE12_M_constructIPKcEEvT_S8_St20forward_iterator_tagEN6_GuardD2Ev
FN:242,242,_ZZNSt7__cxx1112basic_stringIcSt11char_traitsIcESaIcEE12_M_constructIPcEEvT_S7_St20forward_iterator_tagEN6_GuardD2Ev
FNDA:9,_ZNSt7__cxx1112basic_stringIcSt11char_traitsIcESaIcEE12_M_constructIPKcEEvT_S8_St20forward_iterator_tag
FNDA:0,_ZNSt7__cxx1112basic_stringIcSt11char_traitsIcESaIcEE12_M_constructIPcEEvT_S7_St20forward_iterator_tag
FNDA:9,_ZZNSt7__cxx1112basic_stringIcSt11char_traitsIcESaIcEE12_M_constructIPKcEEvT_S8_St20forward_iterator_tagEN6_GuardC2EPS4_
FNDA:0,_ZZNSt7__cxx1112basic_stringIcSt11char_traitsIcESaIcEE12_M_constructIPcEEvT_S7_St20forward_iterator_tagEN6_GuardC2EPS4_
FNDA:9,_ZZNSt7__cxx1112basic_stringIcSt11char_traitsIcESaIcEE12_M_constructIPKcEEvT_S8_St20forward_iterator_tagEN6_GuardD2Ev
FNDA:0,_ZZNSt7__cxx1112basic_stringIcSt11char_traitsIcESaIcEE12_M_constructIPcEEvT_S7_St20forward_iterator_tagEN6_GuardD2Ev
FNF:6
FNH:3
DA:221,9
DA:225,9
DA:227,9
DA:229,9
DA:230,9
DA:239,9
DA:242,9
DA:245,9
DA:247,9
DA:249,9
DA:251,9
DA:252,9
LF:12
LH:12
end_of_record
TN:
SF:/usr/include/c++/13/bits/char_traits.h
FN:136,137,_ZN9__gnu_cxx11char_traitsIcE2eqERKcS3_
FN:199,206,_ZN9__gnu_cxx11char_traitsIcE6lengthEPKc
FN:393,400,_ZNSt11char_traitsIcE6lengthEPKc
FN:427,436,_ZNSt11char_traitsIcE4copyEPcPKcm
FNDA:0,_ZN9__gnu_cxx11char_traitsIcE2eqERKcS3_
FNDA:0,_ZN9__gnu_cxx11char_traitsIcE6lengthEPKc
FNDA:9,_ZNSt11char_traitsIcE6lengthEPKc
FNDA:0,_ZNSt11char_traitsIcE4copyEPcPKcm
FNF:4
FNH:1
DA:136,0
DA:137,0
DA:199,0
DA:202,0
DA:203,0
DA:204,0
DA:205,0
DA:393,9
DA:396,9
DA:397,0
DA:399,9
DA:427,0
DA:429,0
DA:430,0
DA:435,0
LF:15
LH:3
end_of_record
TN:
SF:/usr/include/c++/13/bits/cpp_type_traits.h
FN:607,608,_ZSt12__miter_baseIPKdET_S2_
FN:607,608,_ZSt12__miter_baseIPKiET_S2_
FNDA:12,_ZSt12__miter_baseIPKdET_S2_
FNDA:6,_ZSt12__miter_baseIPKiET_S2_
FNF:2
FNH:2
DA:607,18
DA:608,18
LF:2
LH:2
end_of_record
TN:
SF:/usr/include/c++/13/bits/ios_base.h
FN:732,733,_ZNKSt8ios_base9precisionEv
FN:741,746,_ZNSt8ios_base9precisionEl
FNDA:0,_ZNKSt8ios_base9precisionEv
FNDA:0,_ZNSt8ios_base9precisionEl
FNF:2
FNH:0
DA:732,0
DA:733,0
DA:741,0
DA:743,0
DA:744,0
DA:745,0
LF:6
LH:0
end_of_record
TN:
SF:/usr/include/c++/13/bits/move.h
FN:70,71,_ZSt7forwardIRKiEOT_RNSt16remove_referenceIS2_E4typeE
FN:97,98,_ZSt4moveIRPNSt7__cxx1112basic_stringIcSt11char_traitsIcESaIcEEEEONSt16remove_referenceIT_E4typeEOS9_
FN:97,98,_ZSt4moveIRPNSt7__cxx1118basic_stringstreamIcSt11char_traitsIcESaIcEEEEONSt16remove_referenceIT_E4typeEOS9_
FN:97,98,_ZSt4moveIRSaIcEEONSt16remove_referenceIT_E4typeEOS3_
FNDA:18,_ZSt7forwardIRKiEOT_RNSt16remove_referenceIS2_E4typeE
FNDA:0,_ZSt4moveIRPNSt7__cxx1112basic_stringIcSt11char_traitsIcESaIcEEEEONSt16remove_referenceIT_E4typeEOS9_
FNDA:0,_ZSt4moveIRPNSt7__cxx1118basic_stringstreamIcSt11char_traitsIcESaIcEEEEONSt16remove_referenceIT_E4typeEOS9_
FNDA:0,_ZSt4moveIRSaIcEEONSt16remove_referenceIT_E4typeEOS3_
FNF:4
FNH:1
DA:70,18
DA:71,18
DA:97,0
DA:98,0
LF:4
LH:2
end_of_record
TN:
SF:/usr/include/c++/13/bits/new_allocator.h
FN:104,104,_ZNSt15__new_allocatorIcED2Ev
FN:104,104,_ZNSt15__new_allocatorIdED2Ev
FN:104,104,_ZNSt15__new_allocatorIiED2Ev
FN:126,152,_ZNSt15__new_allocatorIdE8allocateEmPKv
FN:126,152,_ZNSt15__new_allocatorIiE8allocateEmPKv
FN:156,173,_ZNSt15__new_allocatorIdE10deallocateEPdm
FN:156,173,_ZNSt15__new_allocatorIiE10deallocateEPim
FNDA:9,_ZNSt15__new_allocatorIcED2Ev
FNDA:8,_ZNSt15__new_allocatorIdED2Ev
FNDA:12,_ZNSt15__new_allocatorIiED2Ev
FNDA:4,_ZNSt15__new_allocatorIdE8allocateEmPKv
FNDA:9,_ZNSt15__new_allocatorIiE8allocateEmPKv
FNDA:4,_ZNSt15__new_allocatorIdE10deallocateEPdm
FNDA:9,_ZNSt15__new_allocatorIiE10deallocateEPim
FNF:7
FNH:7
DA:88,8
DA:92,12
DA:104,29
DA:126,13
DA:134,13
DA:138,0
DA:139,0
DA:140,0
DA:151,13
DA:156,13
DA:172,13
DA:183,19
DA:191,6
DA:233,32
LF:14
LH:11
end_of_record
TN:
SF:/usr/include/c++/13/bits/stl_algobase.h
FN:1182,1187,_ZNSt7__equalILb1EE5equalIiEEbPKT_S4_S4_
FN:1213,1220,_ZSt12__equal_aux1IPKiS1_EbT_S2_T0_
FN:1225,1230,_ZSt11__equal_auxIN9__gnu_cxx17__normal_iteratorIPKiSt6vectorIiSaIiEEEES7_EbT_S8_T0_
FN:1547,1558,_ZSt5equalIN9__gnu_cxx17__normal_iteratorIPKiSt6vectorIiSaIiEEEES7_EbT_S8_T0_
FN:233,241,_ZSt3minImERKT_S2_S2_
FN:257,265,_ZSt3maxIdERKT_S2_S2_
FN:257,265,_ZSt3maxImERKT_S2_S2_
FN:316,318,_ZSt12__niter_baseIPKdET_S2_
FN:316,318,_ZSt12__niter_baseIPKiET_S2_
FN:316,318,_ZSt12__niter_baseIPdET_S1_
FN:316,318,_ZSt12__niter_baseIPiET_S1_
FN:338,339,_ZSt12__niter_wrapIPdET_RKS1_S1_
FN:338,339,_ZSt12__niter_wrapIPiET_RKS1_S1_
FN:397,398,_ZNSt11__copy_moveILb0ELb0ESt26random_access_iterator_tagE12__assign_oneIdKdEEvPT_PT0_
FN:397,398,_ZNSt11__copy_moveILb0ELb0ESt26random_access_iterator_tagE12__assign_oneIiKiEEvPT_PT0_
FN:433,442,_ZNSt11__copy_moveILb0ELb1ESt26random_access_iterator_tagE8__copy_mIKddEEPT0_PT_S7_S5_
FN:433,442,_ZNSt11__copy_moveILb0ELb1ESt26random_access_iterator_tagE8__copy_mIKiiEEPT0_PT_S7_S5_
FN:497,507,_ZSt14__copy_move_a2ILb0EPKdPdET1_T0_S4_S3_
FN:497,507,_ZSt14__copy_move_a2ILb0EPKiPiET1_T0_S4_S3_
FN:532,533,_ZSt14__copy_move_a1ILb0EPKdPdET1_T0_S4_S3_
FN:532,533,_ZSt14__copy_move_a1ILb0EPKiPiET1_T0_S4_S3_
FN:538,544,_ZSt13__copy_move_aILb0EPKdPdET1_T0_S4_S3_
FN:538,544,_ZSt13__copy_move_aILb0EPKiPiET1_T0_S4_S3_
FN:624,634,_ZSt4copyIPKdPdET0_T_S4_S3_
FN:624,634,_ZSt4copyIPKiPiET0_T_S4_S3_
FN:93,109,_ZSt8__memcmpIiiEiPKT_PKT0_m
FNDA:3,_ZNSt7__equalILb1EE5equalIiEEbPKT_S4_S4_
FNDA:3,_ZSt12__equal_aux1IPKiS1_EbT_S2_T0_
FNDA:3,_ZSt11__equal_auxIN9__gnu_cxx17__normal_iteratorIPKiSt6vectorIiSaIiEEEES7_EbT_S8_T0_
FNDA:3,_ZSt5equalIN9__gnu_cxx17__normal_iteratorIPKiSt6vectorIiSaIiEEEES7_EbT_S8_T0_
FNDA:19,_ZSt3minImERKT_S2_S2_
FNDA:3,_ZSt3maxIdERKT_S2_S2_
FNDA:6,_ZSt3maxImERKT_S2_S2_
FNDA:12,_ZSt12__niter_baseIPKdET_S2_
FNDA:6,_ZSt12__niter_baseIPKiET_S2_
FNDA:6,_ZSt12__niter_baseIPdET_S1_
FNDA:39,_ZSt12__niter_baseIPiET_S1_
FNDA:6,_ZSt12__niter_wrapIPdET_RKS1_S1_
FNDA:3,_ZSt12__niter_wrapIPiET_RKS1_S1_
FNDA:1,_ZNSt11__copy_moveILb0ELb0ESt26random_access_iterator_tagE12__assign_oneIdKdEEvPT_PT0_
FNDA:1,_ZNSt11__copy_moveILb0ELb0ESt26random_access_iterator_tagE12__assign_oneIiKiEEvPT_PT0_
FNDA:6,_ZNSt11__copy_moveILb0ELb1ESt26random_access_iterator_tagE8__copy_mIKddEEPT0_PT_S7_S5_
FNDA:3,_ZNSt11__copy_moveILb0ELb1ESt26random_access_iterator_tagE8__copy_mIKiiEEPT0_PT_S7_S5_
FNDA:6,_ZSt14__copy_move_a2ILb0EPKdPdET1_T0_S4_S3_
FNDA:3,_ZSt14__copy_move_a2ILb0EPKiPiET1_T0_S4_S3_
FNDA:6,_ZSt14__copy_move_a1ILb0EPKdPdET1_T0_S4_S3_
FNDA:3,_ZSt14__copy_move_a1ILb0EPKiPiET1_T0_S4_S3_
FNDA:6,_ZSt13__copy_move_aILb0EPKdPdET1_T0_S4_S3_
FNDA:3,_ZSt13__copy_move_aILb0EPKiPiET1_T0_S4_S3_
FNDA:6,_ZSt4copyIPKdPdET0_T_S4_S3_
FNDA:3,_ZSt4copyIPKiPiET0_T_S4_S3_
FNDA:3,_ZSt8__memcmpIiiEiPKT_PKT0_m
FNF:26
FNH:26
DA:93,3
DA:108,3
DA:233,19
DA:238,19
DA:239,0
DA:240,19
DA:257,9
DA:262,9
DA:263,4
DA:264,5
DA:316,63
DA:318,63
DA:338,9
DA:339,9
DA:397,2
DA:398,2
DA:433,9
DA:435,9
DA:436,9
DA:437,7
DA:438,2
DA:440,2
DA:441,9
DA:497,9
DA:506,9
DA:532,9
DA:533,9
DA:538,9
DA:540,9
DA:543,9
DA:624,9
DA:633,9
DA:1182,3
DA:1184,3
DA:1185,3
DA:1186,0
DA:1213,3
DA:1216,3
DA:1219,3
DA:1225,3
DA:1227,3
DA:1229,3
DA:1547,3
DA:1557,3
LF:44
LH:42
end_of_record
TN:
SF:/usr/include/c++/13/bits/stl_construct.h
FN:172,172,_ZNSt12_Destroy_auxILb1EE9__destroyIPdEEvT_S3_
FN:172,172,_ZNSt12_Destroy_auxILb1EE9__destroyIPiEEvT_S3_
FN:182,197,_ZSt8_DestroyIPdEvT_S1_
FN:182,197,_ZSt8_DestroyIPiEvT_S1_
FNDA:6,_ZNSt12_Destroy_auxILb1EE9__destroyIPdEEvT_S3_
FNDA:6,_ZNSt12_Destroy_auxILb1EE9__destroyIPiEEvT_S3_
FNDA:6,_ZSt8_DestroyIPdEvT_S1_
FNDA:6,_ZSt8_DestroyIPiEvT_S1_
FNF:4
FNH:4
DA:172,12
DA:182,12
DA:196,12
DA:197,12
LF:4
LH:4
end_of_record
TN:
SF:/usr/include/c++/13/bits/stl_iterator.h
FN:1076,1077,_ZN9__gnu_cxx17__normal_iteratorIPKiSt6vectorIiSaIiEEEC2ERKS2_
FN:1076,1077,_ZN9__gnu_cxx17__normal_iteratorIPiSt6vectorIiSaIiEEEC2ERKS1_
FN:1099,1100,_ZNK9__gnu_cxx17__normal_iteratorIPKiSt6vectorIiSaIiEEEdeEv
FN:1109,1113,_ZN9__gnu_cxx17__normal_iteratorIPKiSt6vectorIiSaIiEEEppEv
FN:1162,1163,_ZNK9__gnu_cxx17__normal_iteratorIPKiSt6vectorIiSaIiEEE4baseEv
FN:1162,1163,_ZNK9__gnu_cxx17__normal_iteratorIPiSt6vectorIiSaIiEEE4baseEv
FN:1241,1244,_ZN9__gnu_cxxneIPKiSt6vectorIiSaIiEEEEbRKNS_17__normal_iteratorIT_T0_EESB_
FN:1334,1337,_ZN9__gnu_cxxmiIPiSt6vectorIiSaIiEEEENS_17__normal_iteratorIT_T0_E15difference_typeERKS8_SB_
FN:1357,1359,_ZSt12__niter_baseIPKiSt6vectorIiSaIiEEET_N9__gnu_cxx17__normal_iteratorIS5_T0_EE
FNDA:9,_ZN9__gnu_cxx17__normal_iteratorIPKiSt6vectorIiSaIiEEEC2ERKS2_
FNDA:12,_ZN9__gnu_cxx17__normal_iteratorIPiSt6vectorIiSaIiEEEC2ERKS1_
FNDA:0,_ZNK9__gnu_cxx17__normal_iteratorIPKiSt6vectorIiSaIiEEEdeEv
FNDA:0,_ZN9__gnu_cxx17__normal_iteratorIPKiSt6vectorIiSaIiEEEppEv
FNDA:9,_ZNK9__gnu_cxx17__normal_iteratorIPKiSt6vectorIiSaIiEEE4baseEv
FNDA:24,_ZNK9__gnu_cxx17__normal_iteratorIPiSt6vectorIiSaIiEEE4baseEv
FNDA:0,_ZN9__gnu_cxxneIPKiSt6vectorIiSaIiEEEEbRKNS_17__normal_iteratorIT_T0_EESB_
FNDA:6,_ZN9__gnu_cxxmiIPiSt6vectorIiSaIiEEEENS_17__normal_iteratorIT_T0_E15difference_typeERKS8_SB_
FNDA:9,_ZSt12__niter_baseIPKiSt6vectorIiSaIiEEET_N9__gnu_cxx17__normal_iteratorIS5_T0_EE
FNF:9
FNH:6
DA:1076,21
DA:1077,21
DA:1099,0
DA:1100,0
DA:1109,0
DA:1111,0
DA:1112,0
DA:1162,33
DA:1163,33
DA:1241,0
DA:1244,0
DA:1334,6
DA:1337,6
DA:1357,9
DA:1359,9
LF:15
LH:8
end_of_record
TN:
SF:/usr/include/c++/13/bits/stl_iterator_base_funcs.h
FN:184,196,_ZSt9__advanceIPKdlEvRT_T0_St26random_access_iterator_tag
FNDA:0,_ZSt9__advanceIPKdlEvRT_T0_St26random_access_iterator_tag
FNF:1
FNH:0
DA:106,18
DA:151,36
DA:152,36
DA:184,0
DA:195,0
DA:196,0
DA:223,0
DA:224,0
DA:225,0
LF:9
LH:3
end_of_record
TN:
SF:/usr/include/c++/13/bits/stl_iterator_base_types.h
FNF:0
FNH:0
DA:240,18
LF:1
LH:1
end_of_record
TN:
SF:/usr/include/c++/13/bits/stl_uninitialized.h
FN:1114,1134,_ZSt14__relocate_a_1IiiENSt9enable_ifIXsrSt24__is_bitwise_relocatableIT_vE5valueEPS2_E4typeES4_S4_S4_RSaIT0_E
FN:1141,1150,_ZSt12__relocate_aIPiS0_SaIiEET0_T_S3_S2_RT1_
FN:145,147,_ZNSt20__uninitialized_copyILb1EE13__uninit_copyIPKdPdEET0_T_S6_S5_
FN:145,147,_ZNSt20__uninitialized_copyILb1EE13__uninit_copyIPKiPiEET0_T_S6_S5_
FN:163,186,_ZSt18uninitialized_copyIPKdPdET0_T_S4_S3_
FN:163,186,_ZSt18uninitialized_copyIPKiPiET0_T_S4_S3_
FN:366,374,_ZSt22__uninitialized_copy_aIPKdPddET0_T_S4_S3_RSaIT1_E
FN:366,374,_ZSt22__uninitialized_copy_aIPKiPiiET0_T_S4_S3_RSaIT1_E
FNDA:12,_ZSt14__relocate_a_1IiiENSt9enable_ifIXsrSt24__is_bitwise_relocatableIT_vE5valueEPS2_E4typeES4_S4_S4_RSaIT0_E
FNDA:12,_ZSt12__relocate_aIPiS0_SaIiEET0_T_S3_S2_RT1_
FNDA:4,_ZNSt20__uninitialized_copyILb1EE13__uninit_copyIPKdPdEET0_T_S6_S5_
FNDA:3,_ZNSt20__uninitialized_copyILb1EE13__uninit_copyIPKiPiEET0_T_S6_S5_
FNDA:4,_ZSt18uninitialized_copyIPKdPdET0_T_S4_S3_
FNDA:3,_ZSt18uninitialized_copyIPKiPiET0_T_S4_S3_
FNDA:4,_ZSt22__uninitialized_copy_aIPKdPddET0_T_S4_S3_RSaIT1_E
FNDA:3,_ZSt22__uninitialized_copy_aIPKiPiiET0_T_S4_S3_RSaIT1_E
FNF:8
FNH:8
DA:145,7
DA:147,7
DA:163,7
DA:174,7
DA:181,7
DA:185,7
DA:366,7
DA:373,7
DA:1114,12
DA:1118,12
DA:1119,12
DA:1131,3
DA:1133,12
DA:1141,12
DA:1147,12
DA:1149,12
LF:16
LH:16
end_of_record
TN:
SF:/usr/include/c++/13/bits/stl_vector.h
FN:1078,1080,_ZNKSt6vectorIdSaIdEE8capacityEv
FN:1145,1149,_ZNKSt6vectorIdSaIdEEixEm
FN:1281,1293,_ZNSt6vectorIiSaIiEE9push_backERKi
FN:137,143,_ZNSt12_Vector_baseIiSaIiEE12_Vector_implC2Ev
FN:146,148,_ZNSt12_Vector_baseIdSaIdEE12_Vector_implC2ERKS0_
FN:146,148,_ZNSt12_Vector_baseIiSaIiEE12_Vector_implC2ERKS0_
FN:1616,1631,_ZNSt6vectorIdSaIdEE20_M_allocate_and_copyIPKdEEPdmT_S6_
FN:1687,1698,_ZNSt6vectorIdSaIdEE19_M_range_initializeIPKdEEvT_S5_St20forward_iterator_tag
FN:1687,1698,_ZNSt6vectorIiSaIiEE19_M_range_initializeIPKiEEvT_S5_St20forward_iterator_tag
FN:1896,1903,_ZNKSt6vectorIiSaIiEE12_M_check_lenEmPKc
FN:1907,1913,_ZNSt6vectorIdSaIdEE17_S_check_init_lenEmRKS0_
FN:1907,1913,_ZNSt6vectorIiSaIiEE17_S_check_init_lenEmRKS0_
FN:1916,1925,_ZNSt6vectorIdSaIdEE11_S_max_sizeERKS0_
FN:1916,1925,_ZNSt6vectorIiSaIiEE11_S_max_sizeERKS0_
FN:1933,1942,_ZNSt6vectorIdSaIdEE15_M_erase_at_endEPd
FN:2040,2042,_ZSteqIiSaIiEEbRKSt6vectorIT_T0_ES6_
FN:301,302,_ZNSt12_Vector_baseIdSaIdEE19_M_get_Tp_allocatorEv
FN:301,302,_ZNSt12_Vector_baseIiSaIiEE19_M_get_Tp_allocatorEv
FN:306,307,_ZNKSt12_Vector_baseIiSaIiEE19_M_get_Tp_allocatorEv
FN:315,315,_ZNSt12_Vector_baseIiSaIiEEC2Ev
FN:321,322,_ZNSt12_Vector_baseIdSaIdEEC2ERKS0_
FN:321,322,_ZNSt12_Vector_baseIiSaIiEEC2ERKS0_
FN:367,371,_ZNSt12_Vector_baseIdSaIdEED2Ev
FN:367,371,_ZNSt12_Vector_baseIiSaIiEED2Ev
FN:378,382,_ZNSt12_Vector_baseIdSaIdEE11_M_allocateEm
FN:378,382,_ZNSt12_Vector_baseIiSaIiEE11_M_allocateEm
FN:386,391,_ZNSt12_Vector_baseIdSaIdEE13_M_deallocateEPdm
FN:386,391,_ZNSt12_Vector_baseIiSaIiEE13_M_deallocateEPim
FN:504,514,_ZNSt6vectorIiSaIiEE11_S_relocateEPiS2_S2_RS0_
FN:531,531,_ZNSt6vectorIiSaIiEEC2Ev
FN:678,684,_ZNSt6vectorIdSaIdEEC2ESt16initializer_listIdERKS0_
FN:678,684,_ZNSt6vectorIiSaIiEEC2ESt16initializer_listIiERKS0_
FN:733,738,_ZNSt6vectorIdSaIdEED2Ev
FN:733,738,_ZNSt6vectorIiSaIiEED2Ev
FN:788,793,_ZNSt6vectorIdSaIdEEaSESt16initializer_listIdE
FN:873,874,_ZNSt6vectorIiSaIiEE5beginEv
FN:883,884,_ZNKSt6vectorIiSaIiEE5beginEv
FN:893,894,_ZNSt6vectorIiSaIiEE3endEv
FN:903,904,_ZNKSt6vectorIiSaIiEE3endEv
FN:99,101,_ZNSt12_Vector_baseIdSaIdEE17_Vector_impl_dataC2Ev
FN:99,101,_ZNSt12_Vector_baseIiSaIiEE17_Vector_impl_dataC2Ev
FN:992,993,_ZNKSt6vectorIdSaIdEE4sizeEv
FN:992,993,_ZNKSt6vectorIiSaIiEE4sizeEv
FN:998,999,_ZNKSt6vectorIiSaIiEE8max_sizeEv
FNDA:4,_ZNKSt6vectorIdSaIdEE8capacityEv
FNDA:14,_ZNKSt6vectorIdSaIdEEixEm
FNDA:6,_ZNSt6vectorIiSaIiEE9push_backERKi
FNDA:3,_ZNSt12_Vector_baseIiSaIiEE12_Vector_implC2Ev
FNDA:2,_ZNSt12_Vector_baseIdSaIdEE12_Vector_implC2ERKS0_
FNDA:3,_ZNSt12_Vector_baseIiSaIiEE12_Vector_implC2ERKS0_
FNDA:2,_ZNSt6vectorIdSaIdEE20_M_allocate_and_copyIPKdEEPdmT_S6_
FNDA:2,_ZNSt6vectorIdSaIdEE19_M_range_initializeIPKdEEvT_S5_St20forward_iterator_tag
FNDA:3,_ZNSt6vectorIiSaIiEE19_M_range_initializeIPKiEEvT_S5_St20forward_iterator_tag
FNDA:6,_ZNKSt6vectorIiSaIiEE12_M_check_lenEmPKc
FNDA:4,_ZNSt6vectorIdSaIdEE17_S_check_init_lenEmRKS0_
FNDA:3,_ZNSt6vectorIiSaIiEE17_S_check_init_lenEmRKS0_
FNDA:4,_ZNSt6vectorIdSaIdEE11_S_max_sizeERKS0_
FNDA:15,_ZNSt6vectorIiSaIiEE11_S_max_sizeERKS0_
FNDA:2,_ZNSt6vectorIdSaIdEE15_M_erase_at_endEPd
FNDA:3,_ZSteqIiSaIiEEbRKSt6vectorIT_T0_ES6_
FNDA:14,_ZNSt12_Vector_baseIdSaIdEE19_M_get_Tp_allocatorEv
FNDA:24,_ZNSt12_Vector_baseIiSaIiEE19_M_get_Tp_allocatorEv
FNDA:12,_ZNKSt12_Vector_baseIiSaIiEE19_M_get_Tp_allocatorEv
FNDA:3,_ZNSt12_Vector_baseIiSaIiEEC2Ev
FNDA:2,_ZNSt12_Vector_baseIdSaIdEEC2ERKS0_
FNDA:3,_ZNSt12_Vector_baseIiSaIiEEC2ERKS0_
FNDA:2,_ZNSt12_Vector_baseIdSaIdEED2Ev
FNDA:6,_ZNSt12_Vector_baseIiSaIiEED2Ev
FNDA:4,_ZNSt12_Vector_baseIdSaIdEE11_M_allocateEm
FNDA:9,_ZNSt12_Vector_baseIiSaIiEE11_M_allocateEm
FNDA:4,_ZNSt12_Vector_baseIdSaIdEE13_M_deallocateEPdm
FNDA:12,_ZNSt12_Vector_baseIiSaIiEE13_M_deallocateEPim
FNDA:12,_ZNSt6vectorIiSaIiEE11_S_relocateEPiS2_S2_RS0_
FNDA:3,_ZNSt6vectorIiSaIiEEC2Ev
FNDA:2,_ZNSt6vectorIdSaIdEEC2ESt16initializer_listIdERKS0_
FNDA:3,_ZNSt6vectorIiSaIiEEC2ESt16initializer_listIiERKS0_
FNDA:2,_ZNSt6vectorIdSaIdEED2Ev
FNDA:6,_ZNSt6vectorIiSaIiEED2Ev
FNDA:4,_ZNSt6vectorIdSaIdEEaSESt16initializer_listIdE
FNDA:6,_ZNSt6vectorIiSaIiEE5beginEv
FNDA:6,_ZNKSt6vectorIiSaIiEE5beginEv
FNDA:6,_ZNSt6vectorIiSaIiEE3endEv
FNDA:3,_ZNKSt6vectorIiSaIiEE3endEv
FNDA:2,_ZNSt12_Vector_baseIdSaIdEE17_Vector_impl_dataC2Ev
FNDA:6,_ZNSt12_Vector_baseIiSaIiEE17_Vector_impl_dataC2Ev
FNDA:19,_ZNKSt6vectorIdSaIdEE4sizeEv
FNDA:30,_ZNKSt6vectorIiSaIiEE4sizeEv
FNDA:12,_ZNKSt6vectorIiSaIiEE8max_sizeEv
FNF:44
FNH:44
DA:99,8
DA:100,8
DA:101,8
DA:137,3
DA:142,3
DA:143,3
DA:146,5
DA:147,5
DA:148,5
DA:301,38
DA:302,38
DA:306,12
DA:307,12
DA:315,3
DA:321,5
DA:322,5
DA:367,8
DA:369,8
DA:370,8
DA:371,8
DA:378,13
DA:381,26
DA:386,16
DA:389,16
DA:390,13
DA:391,16
DA:504,12
DA:509,12
DA:531,3
DA:678,5
DA:680,5
DA:682,5
DA:683,5
DA:684,5
DA:733,8
DA:735,8
DA:736,8
DA:738,8
DA:788,4
DA:790,4
DA:791,4
DA:792,4
DA:873,6
DA:874,6
DA:883,6
DA:884,6
DA:893,6
DA:894,6
DA:903,3
DA:904,3
DA:992,49
DA:993,49
DA:998,12
DA:999,12
DA:1078,4
DA:1079,4
DA:1080,4
DA:1145,14
DA:1148,14
DA:1281,6
DA:1283,6
DA:1286,0
DA:1288,0
DA:1292,6
DA:1293,6
DA:1616,2
DA:1619,2
DA:1622,2
DA:1623,2
DA:1624,2
DA:1626,0
DA:1628,0
DA:1629,0
DA:1687,5
DA:1690,5
DA:1692,5
DA:1693,5
DA:1694,5
DA:1695,5
DA:1697,5
DA:1698,5
DA:1896,6
DA:1898,6
DA:1899,0
DA:1901,6
DA:1902,6
DA:1907,7
DA:1909,7
DA:1910,0
DA:1912,7
DA:1916,19
DA:1921,19
DA:1923,19
DA:1924,19
DA:1933,2
DA:1935,2
DA:1937,2
DA:1938,2
DA:1939,2
DA:1942,2
DA:2040,3
DA:2041,3
DA:2042,3
LF:103
LH:96
end_of_record
TN:
SF:/usr/include/c++/13/bits/unique_ptr.h
FN:197,197,_ZNSt15__uniq_ptr_implINSt7__cxx1112basic_stringIcSt11char_traitsIcESaIcEEESt14default_deleteIS5_EE6_M_ptrEv
FN:197,197,_ZNSt15__uniq_ptr_implINSt7__cxx1118basic_stringstreamIcSt11char_traitsIcESaIcEEESt14default_deleteIS5_EE6_M_ptrEv
FN:199,199,_ZNKSt15__uniq_ptr_implINSt7__cxx1112basic_stringIcSt11char_traitsIcESaIcEEESt14default_deleteIS5_EE6_M_ptrEv
FN:201,201,_ZNSt15__uniq_ptr_implINSt7__cxx1112basic_stringIcSt11char_traitsIcESaIcEEESt14default_deleteIS5_EE10_M_deleterEv
FN:201,201,_ZNSt15__uniq_ptr_implINSt7__cxx1118basic_stringstreamIcSt11char_traitsIcESaIcEEESt14default_deleteIS5_EE10_M_deleterEv
FN:398,406,_ZNSt10unique_ptrINSt7__cxx1112basic_stringIcSt11char_traitsIcESaIcEEESt14default_deleteIS5_EED2Ev
FN:398,406,_ZNSt10unique_ptrINSt7__cxx1118basic_stringstreamIcSt11char_traitsIcESaIcEEESt14default_deleteIS5_EED2Ev
FN:460,464,_ZNKSt10unique_ptrINSt7__cxx1112basic_stringIcSt11char_traitsIcESaIcEEESt14default_deleteIS5_EEptEv
FN:469,470,_ZNKSt10unique_ptrINSt7__cxx1112basic_stringIcSt11char_traitsIcESaIcEEESt14default_deleteIS5_EE3getEv
FN:475,476,_ZNSt10unique_ptrINSt7__cxx1112basic_stringIcSt11char_traitsIcESaIcEEESt14default_deleteIS5_EE11get_deleterEv
FN:475,476,_ZNSt10unique_ptrINSt7__cxx1118basic_stringstreamIcSt11char_traitsIcESaIcEEESt14default_deleteIS5_EE11get_deleterEv
FN:486,487,_ZNKSt10unique_ptrINSt7__cxx1112basic_stringIcSt11char_traitsIcESaIcEEESt14default_deleteIS5_EEcvbEv
FN:861,862,_ZStneINSt7__cxx1112basic_stringIcSt11char_traitsIcESaIcEEESt14default_deleteIS5_EEbRKSt10unique_ptrIT_T0_EDn
FN:93,100,_ZNKSt14default_deleteINSt7__cxx1112basic_stringIcSt11char_traitsIcESaIcEEEEclEPS5_
FN:93,100,_ZNKSt14default_deleteINSt7__cxx1118basic_stringstreamIcSt11char_traitsIcESaIcEEEEclEPS5_
FNDA:32,_ZNSt15__uniq_ptr_implINSt7__cxx1112basic_stringIcSt11char_traitsIcESaIcEEESt14default_deleteIS5_EE6_M_ptrEv
FNDA:0,_ZNSt15__uniq_ptr_implINSt7__cxx1118basic_stringstreamIcSt11char_traitsIcESaIcEEESt14default_deleteIS5_EE6_M_ptrEv
FNDA:0,_ZNKSt15__uniq_ptr_implINSt7__cxx1112basic_stringIcSt11char_traitsIcESaIcEEESt14default_deleteIS5_EE6_M_ptrEv
FNDA:0,_ZNSt15__uniq_ptr_implINSt7__cxx1112basic_stringIcSt11char_traitsIcESaIcEEESt14default_deleteIS5_EE10_M_deleterEv
FNDA:0,_ZNSt15__uniq_ptr_implINSt7__cxx1118basic_stringstreamIcSt11char_traitsIcESaIcEEESt14default_deleteIS5_EE10_M_deleterEv
FNDA:32,_ZNSt10unique_ptrINSt7__cxx1112basic_stringIcSt11char_traitsIcESaIcEEESt14default_deleteIS5_EED2Ev
FNDA:0,_ZNSt10unique_ptrINSt7__cxx1118basic_stringstreamIcSt11char_traitsIcESaIcEEESt14default_deleteIS5_EED2Ev
FNDA:0,_ZNKSt10unique_ptrINSt7__cxx1112basic_stringIcSt11char_traitsIcESaIcEEESt14default_deleteIS5_EEptEv
FNDA:0,_ZNKSt10unique_ptrINSt7__cxx1112basic_stringIcSt11char_traitsIcESaIcEEESt14default_deleteIS5_EE3getEv
FNDA:0,_ZNSt10unique_ptrINSt7__cxx1112basic_stringIcSt11char_traitsIcESaIcEEESt14default_deleteIS5_EE11get_deleterEv
FNDA:0,_ZNSt10unique_ptrINSt7__cxx1118basic_stringstreamIcSt11char_traitsIcESaIcEEESt14default_deleteIS5_EE11get_deleterEv
FNDA:0,_ZNKSt10unique_ptrINSt7__cxx1112basic_stringIcSt11char_traitsIcESaIcEEESt14default_deleteIS5_EEcvbEv
FNDA:0,_ZStneINSt7__cxx1112basic_stringIcSt11char_traitsIcESaIcEEESt14default_deleteIS5_EEbRKSt10unique_ptrIT_T0_EDn
FNDA:0,_ZNKSt14default_deleteINSt7__cxx1112basic_stringIcSt11char_traitsIcESaIcEEEEclEPS5_
FNDA:0,_ZNKSt14default_deleteINSt7__cxx1118basic_stringstreamIcSt11char_traitsIcESaIcEEEEclEPS5_
FNF:15
FNH:2
DA:93,0
DA:99,0
DA:100,0
DA:197,32
DA:199,0
DA:201,0
DA:398,32
DA:402,32
DA:403,32
DA:404,0
DA:405,32
DA:406,32
DA:460,0
DA:463,0
DA:469,0
DA:470,0
DA:475,0
DA:476,0
DA:486,0
DA:487,0
DA:861,0
DA:862,0
LF:22
LH:6
end_of_record
TN:
SF:/usr/include/c++/13/bits/vector.tcc
FN:315,350,_ZNSt6vectorIdSaIdEE13_M_assign_auxIPKdEEvT_S5_St20forward_iterator_tag
FN:445,524,_ZNSt6vectorIiSaIiEE17_M_realloc_insertIJRKiEEEvN9__gnu_cxx17__normal_iteratorIPiS1_EEDpOT_
FNDA:4,_ZNSt6vectorIdSaIdEE13_M_assign_auxIPKdEEvT_S5_St20forward_iterator_tag
FNDA:6,_ZNSt6vectorIiSaIiEE17_M_realloc_insertIJRKiEEEvN9__gnu_cxx17__normal_iteratorIPiS1_EEDpOT_
FNF:2
FNH:2
DA:315,4
DA:319,4
DA:321,4
DA:323,2
DA:324,2
DA:325,2
DA:326,2
DA:328,2
DA:329,2
DA:330,2
DA:331,2
DA:332,2
DA:333,2
DA:335,2
DA:336,2
DA:339,0
DA:340,0
DA:341,0
DA:342,0
DA:344,0
DA:345,0
DA:347,0
DA:350,4
DA:445,6
DA:455,6
DA:456,6
DA:457,6
DA:458,6
DA:459,6
DA:460,6
DA:468,6
DA:469,6
DA:475,6
DA:480,6
DA:481,6
DA:483,6
DA:485,6
DA:486,6
DA:519,6
DA:520,6
DA:521,6
DA:522,6
DA:523,6
DA:524,6
LF:44
LH:37
end_of_record
TN:
SF:/usr/include/c++/13/initializer_list
FN:69,69,_ZNKSt16initializer_listIdE4sizeEv
FN:69,69,_ZNKSt16initializer_listIiE4sizeEv
FN:73,73,_ZNKSt16initializer_listIdE5beginEv
FN:73,73,_ZNKSt16initializer_listIiE5beginEv
FN:77,77,_ZNKSt16initializer_listIdE3endEv
FN:77,77,_ZNKSt16initializer_listIiE3endEv
FNDA:6,_ZNKSt16initializer_listIdE4sizeEv
FNDA:3,_ZNKSt16initializer_listIiE4sizeEv
FNDA:12,_ZNKSt16initializer_listIdE5beginEv
FNDA:6,_ZNKSt16initializer_listIiE5beginEv
FNDA:6,_ZNKSt16initializer_listIdE3endEv
FNDA:3,_ZNKSt16initializer_listIiE3endEv
FNF:6
FNH:6
DA:69,9
DA:73,18
DA:77,9
LF:3
LH:3
end_of_record
TN:
SF:/usr/include/c++/13/new
FN:174,175,_ZnwmPv
FNDA:6,_ZnwmPv
FNF:1
FNH:1
DA:174,6
DA:175,6
LF:2
LH:2
end_of_record
TN:
SF:/usr/include/c++/13/tuple
FN:125,125,_ZNSt10_Head_baseILm1ESt14default_deleteINSt7__cxx1112basic_stringIcSt11char_traitsIcESaIcEEEELb1EE7_M_headERS8_
FN:125,125,_ZNSt10_Head_baseILm1ESt14default_deleteINSt7__cxx1118basic_stringstreamIcSt11char_traitsIcESaIcEEEELb1EE7_M_headERS8_
FN:1787,1788,_ZSt12__get_helperILm0EPNSt7__cxx1112basic_stringIcSt11char_traitsIcESaIcEEEJSt14default_deleteIS5_EEERT0_RSt11_Tuple_implIXT_EJS9_DpT1_EE
FN:1787,1788,_ZSt12__get_helperILm0EPNSt7__cxx1118basic_stringstreamIcSt11char_traitsIcESaIcEEEJSt14default_deleteIS5_EEERT0_RSt11_Tuple_implIXT_EJS9_DpT1_EE
FN:1787,1788,_ZSt12__get_helperILm1ESt14default_deleteINSt7__cxx1112basic_stringIcSt11char_traitsIcESaIcEEEEJEERT0_RSt11_Tuple_implIXT_EJS8_DpT1_EE
FN:1787,1788,_ZSt12__get_helperILm1ESt14default_deleteINSt7__cxx1118basic_stringstreamIcSt11char_traitsIcESaIcEEEEJEERT0_RSt11_Tuple_implIXT_EJS8_DpT1_EE
FN:1792,1793,_ZSt12__get_helperILm0EPNSt7__cxx1112basic_stringIcSt11char_traitsIcESaIcEEEJSt14default_deleteIS5_EEERKT0_RKSt11_Tuple_implIXT_EJS9_DpT1_EE
FN:1803,1804,_ZSt3getILm0EJPNSt7__cxx1112basic_stringIcSt11char_traitsIcESaIcEEESt14default_deleteIS5_EEERNSt13tuple_elementIXT_ESt5tupleIJDpT0_EEE4typeERSD_
FN:1803,1804,_ZSt3getILm0EJPNSt7__cxx1118basic_stringstreamIcSt11char_traitsIcESaIcEEESt14default_deleteIS5_EEERNSt13tuple_elementIXT_ESt5tupleIJDpT0_EEE4typeERSD_
FN:1803,1804,_ZSt3getILm1EJPNSt7__cxx1112basic_stringIcSt11char_traitsIcESaIcEEESt14default_deleteIS5_EEERNSt13tuple_elementIXT_ESt5tupleIJDpT0_EEE4typeERSD_
FN:1803,1804,_ZSt3getILm1EJPNSt7__cxx1118basic_stringstreamIcSt11char_traitsIcESaIcEEESt14default_deleteIS5_EEERNSt13tuple_elementIXT_ESt5tupleIJDpT0_EEE4typeERSD_
FN:1809,1810,_ZSt3getILm0EJPNSt7__cxx1112basic_stringIcSt11char_traitsIcESaIcEEESt14default_deleteIS5_EEERKNSt13tuple_elementIXT_ESt5tupleIJDpT0_EEE4typeERKSD_
FN:234,234,_ZNSt10_Head_baseILm0EPNSt7__cxx1112basic_stringIcSt11char_traitsIcESaIcEEELb0EE7_M_headERS7_
FN:234,234,_ZNSt10_Head_baseILm0EPNSt7__cxx1118basic_stringstreamIcSt11char_traitsIcESaIcEEELb0EE7_M_headERS7_
FN:237,237,_ZNSt10_Head_baseILm0EPNSt7__cxx1112basic_stringIcSt11char_traitsIcESaIcEEELb0EE7_M_headERKS7_
FN:269,269,_ZNSt11_Tuple_implILm0EJPNSt7__cxx1112basic_stringIcSt11char_traitsIcESaIcEEESt14default_deleteIS5_EEE7_M_headERS9_
FN:269,269,_ZNSt11_Tuple_implILm0EJPNSt7__cxx1118basic_stringstreamIcSt11char_traitsIcESaIcEEESt14default_deleteIS5_EEE7_M_headERS9_
FN:272,272,_ZNSt11_Tuple_implILm0EJPNSt7__cxx1112basic_stringIcSt11char_traitsIcESaIcEEESt14default_deleteIS5_EEE7_M_headERKS9_
FN:497,497,_ZNSt11_Tuple_implILm1EJSt14default_deleteINSt7__cxx1112basic_stringIcSt11char_traitsIcESaIcEEEEEE7_M_headERS8_
FN:497,497,_ZNSt11_Tuple_implILm1EJSt14default_deleteINSt7__cxx1118basic_stringstreamIcSt11char_traitsIcESaIcEEEEEE7_M_headERS8_
FNDA:0,_ZNSt10_Head_baseILm1ESt14default_deleteINSt7__cxx1112basic_stringIcSt11char_traitsIcESaIcEEEELb1EE7_M_headERS8_
FNDA:0,_ZNSt10_Head_baseILm1ESt14default_deleteINSt7__cxx1118basic_stringstreamIcSt11char_traitsIcESaIcEEEELb1EE7_M_headERS8_
FNDA:32,_ZSt12__get_helperILm0EPNSt7__cxx1112basic_stringIcSt11char_traitsIcESaIcEEEJSt14default_deleteIS5_EEERT0_RSt11_Tuple_implIXT_EJS9_DpT1_EE
FNDA:0,_ZSt12__get_helperILm0EPNSt7__cxx1118basic_stringstreamIcSt11char_traitsIcESaIcEEEJSt14default_deleteIS5_EEERT0_RSt11_Tuple_implIXT_EJS9_DpT1_EE
FNDA:0,_ZSt12__get_helperILm1ESt14default_deleteINSt7__cxx1112basic_stringIcSt11char_traitsIcESaIcEEEEJEERT0_RSt11_Tuple_implIXT_EJS8_DpT1_EE
FNDA:0,_ZSt12__get_helperILm1ESt14default_deleteINSt7__cxx1118basic_stringstreamIcSt11char_traitsIcESaIcEEEEJEERT0_RSt11_Tuple_implIXT_EJS8_DpT1_EE
FNDA:0,_ZSt12__get_helperILm0EPNSt7__cxx1112basic_stringIcSt11char_traitsIcESaIcEEEJSt14default_deleteIS5_EEERKT0_RKSt11_Tuple_implIXT_EJS9_DpT1_EE
FNDA:32,_ZSt3getILm0EJPNSt7__cxx1112basic_stringIcSt11char_traitsIcESaIcEEESt14default_deleteIS5_EEERNSt13tuple_elementIXT_ESt5tupleIJDpT0_EEE4typeERSD_
FNDA:0,_ZSt3getILm0EJPNSt7__cxx1118basic_stringstreamIcSt11char_traitsIcESaIcEEESt14default_deleteIS5_EEERNSt13tuple_elementIXT_ESt5tupleIJDpT0_EEE4typeERSD_
FNDA:0,_ZSt3getILm1EJPNSt7__cxx1112basic_stringIcSt11char_traitsIcESaIcEEESt14default_deleteIS5_EEERNSt13tuple_elementIXT_ESt5tupleIJDpT0_EEE4typeERSD_
FNDA:0,_ZSt3getILm1EJPNSt7__cxx1118basic_stringstreamIcSt11char_traitsIcESaIcEEESt14default_deleteIS5_EEERNSt13tuple_elementIXT_ESt5tupleIJDpT0_EEE4typeERSD_
FNDA:0,_ZSt3getILm0EJPNSt7__cxx1112basic_stringIcSt11char_traitsIcESaIcEEESt14default_deleteIS5_EEERKNSt13tuple_elementIXT_ESt5tupleIJDpT0_EEE4typeERKSD_
FNDA:32,_ZNSt10_Head_baseILm0EPNSt7__cxx1112basic_stringIcSt11char_traitsIcESaIcEEELb0EE7_M_headERS7_
FNDA:0,_ZNSt10_Head_baseILm0EPNSt7__cxx1118basic_stringstreamIcSt11char_traitsIcESaIcEEELb0EE7_M_headERS7_
FNDA:0,_ZNSt10_Head_baseILm0EPNSt7__cxx1112basic_stringIcSt11char_traitsIcESaIcEEELb0EE7_M_headERKS7_
FNDA:32,_ZNSt11_Tuple_implILm0EJPNSt7__cxx1112basic_stringIcSt11char_traitsIcESaIcEEESt14default_deleteIS5_EEE7_M_headERS9_
FNDA:0,_ZNSt11_Tuple_implILm0EJPNSt7__cxx1118basic_stringstreamIcSt11char_traitsIcESaIcEEESt14default_deleteIS5_EEE7_M_headERS9_
FNDA:0,_ZNSt11_Tuple_implILm0EJPNSt7__cxx1112basic_stringIcSt11char_traitsIcESaIcEEESt14default_deleteIS5_EEE7_M_headERKS9_
FNDA:0,_ZNSt11_Tuple_implILm1EJSt14default_deleteINSt7__cxx1112basic_stringIcSt11char_traitsIcESaIcEEEEEE7_M_headERS8_
FNDA:0,_ZNSt11_Tuple_implILm1EJSt14default_deleteINSt7__cxx1118basic_stringstreamIcSt11char_traitsIcESaIcEEEEEE7_M_headERS8_
FNF:20
FNH:4
DA:125,0
DA:234,32
DA:237,0
DA:269,32
DA:272,0
DA:497,0
DA:1787,32
DA:1788,32
DA:1792,0
DA:1793,0
DA:1803,32
DA:1804,32
DA:1809,0
DA:1810,0
LF:14
LH:6
end_of_record
TN:
SF:/usr/include/c++/13/typeinfo
FN:103,104,_ZNKSt9type_info4nameEv
FNDA:0,_ZNKSt9type_info4nameEv
FNF:1
FNH:0
DA:103,0
DA:104,0
LF:2
LH:0
end_of_record
TN:
SF:/usr/include/gtest/gtest-assertion-result.h
FN:174,174,_ZNK7testing15AssertionResultcvbEv
FN:183,185,_ZNK7testing15AssertionResult7messageEv
FN:187,187,_ZNK7testing15AssertionResult15failure_messageEv
FNDA:32,_ZNK7testing15AssertionResultcvbEv
FNDA:0,_ZNK7testing15AssertionResult7messageEv
FNDA:0,_ZNK7testing15AssertionResult15failure_messageEv
FNF:3
FNH:1
DA:174,32
DA:183,0
DA:184,0
DA:187,0
LF:4
LH:1
end_of_record
TN:
SF:/usr/include/gtest/gtest-message.h
FNF:0
FNH:0
LF:0
LH:0
end_of_record
TN:
SF:/usr/include/gtest/gtest-printers.h
FN:1108,1113,_ZN7testing8internal14UniversalPrintISt6vectorIiSaIiEEEEvRKT_PSo
FN:1108,1113,_ZN7testing8internal14UniversalPrintIdEEvRKT_PSo
FN:1108,1113,_ZN7testing8internal14UniversalPrintIiEEvRKT_PSo
FN:1148,1152,_ZN7testing13PrintToStringISt6vectorIiSaIiEEEENSt7__cxx1112basic_stringIcSt11char_traitsIcESaIcEEERKT_
FN:1148,1152,_ZN7testing13PrintToStringIdEENSt7__cxx1112basic_stringIcSt11char_traitsIcESaIcEEERKT_
FN:1148,1152,_ZN7testing13PrintToStringIiEENSt7__cxx1112basic_stringIcSt11char_traitsIcESaIcEEERKT_
FN:141,164,_ZN7testing8internal16ContainerPrinter10PrintValueISt6vectorIiSaIiEEvEEvRKT_PSo
FN:221,226,_ZN7testing8internal52internal_stream_operator_without_lexical_name_lookup13StreamPrinter10PrintValueIivEEDTcvvlsdefp0_fp_ERKT_PSo
FN:326,337,_ZN7testing8internal17PrintWithFallbackISt6vectorIiSaIiEEEEvRKT_PSo
FN:326,337,_ZN7testing8internal17PrintWithFallbackIiEEvRKT_PSo
FN:357,359,_ZN7testing8internal19FormatForComparisonISt6vectorIiSaIiEES4_E6FormatB5cxx11ERKS4_
FN:357,359,_ZN7testing8internal19FormatForComparisonIdiE6FormatB5cxx11ERKd
FN:357,359,_ZN7testing8internal19FormatForComparisonIidE6FormatB5cxx11ERKi
FN:357,359,_ZN7testing8internal19FormatForComparisonIiiE6FormatB5cxx11ERKi
FN:437,440,_ZN7testing8internal33FormatForComparisonFailureMessageISt6vectorIiSaIiEES4_EENSt7__cxx1112basic_stringIcSt11char_traitsIcESaIcEEERKT_RKT0_
FN:437,440,_ZN7testing8internal33FormatForComparisonFailureMessageIdiEENSt7__cxx1112basic_stringIcSt11char_traitsIcESaIcEEERKT_RKT0_
FN:437,440,_ZN7testing8internal33FormatForComparisonFailureMessageIidEENSt7__cxx1112basic_stringIcSt11char_traitsIcESaIcEEERKT_RKT0_
FN:437,440,_ZN7testing8internal33FormatForComparisonFailureMessageIiiEENSt7__cxx1112basic_stringIcSt11char_traitsIcESaIcEEERKT_RKT0_
FN:464,466,_ZN7testing8internal7PrintToISt6vectorIiSaIiEEEEvRKT_PSo
FN:464,466,_ZN7testing8internal7PrintToIiEEvRKT_PSo
FN:529,577,_ZN7testing8internal21AppropriateResolutionIdEEiT_
FN:586,591,_ZN7testing8internal7PrintToEdPSo
FN:799,809,_ZN7testing8internal16UniversalPrinterISt6vectorIiSaIiEEE5PrintERKS4_PSo
FN:799,809,_ZN7testing8internal16UniversalPrinterIdE5PrintERKdPSo
FN:799,809,_ZN7testing8internal16UniversalPrinterIiE5PrintERKiPSo
FN:989,991,_ZN7testing8internal21UniversalTersePrinterISt6vectorIiSaIiEEE5PrintERKS4_PSo
FN:989,991,_ZN7testing8internal21UniversalTersePrinterIdE5PrintERKdPSo
FN:989,991,_ZN7testing8internal21UniversalTersePrinterIiE5PrintERKiPSo
FNDA:0,_ZN7testing8internal14UniversalPrintISt6vectorIiSaIiEEEEvRKT_PSo
FNDA:0,_ZN7testing8internal14UniversalPrintIdEEvRKT_PSo
FNDA:0,_ZN7testing8internal14UniversalPrintIiEEvRKT_PSo
FNDA:0,_ZN7testing13PrintToStringISt6vectorIiSaIiEEEENSt7__cxx1112basic_stringIcSt11char_traitsIcESaIcEEERKT_
FNDA:0,_ZN7testing13PrintToStringIdEENSt7__cxx1112basic_stringIcSt11char_traitsIcESaIcEEERKT_
FNDA:0,_ZN7testing13PrintToStringIiEENSt7__cxx1112basic_stringIcSt11char_traitsIcESaIcEEERKT_
FNDA:0,_ZN7testing8internal16ContainerPrinter10PrintValueISt6vectorIiSaIiEEvEEvRKT_PSo
FNDA:0,_ZN7testing8internal52internal_stream_operator_without_lexical_name_lookup13StreamPrinter10PrintValueIivEEDTcvvlsdefp0_fp_ERKT_PSo
FNDA:0,_ZN7testing8internal17PrintWithFallbackISt6vectorIiSaIiEEEEvRKT_PSo
FNDA:0,_ZN7testing8internal17PrintWithFallbackIiEEvRKT_PSo
FNDA:0,_ZN7testing8internal19FormatForComparisonISt6vectorIiSaIiEES4_E6FormatB5cxx11ERKS4_
FNDA:0,_ZN7testing8internal19FormatForComparisonIdiE6FormatB5cxx11ERKd
FNDA:0,_ZN7testing8internal19FormatForComparisonIidE6FormatB5cxx11ERKi
FNDA:0,_ZN7testing8internal19FormatForComparisonIiiE6FormatB5cxx11ERKi
FNDA:0,_ZN7testing8internal33FormatForComparisonFailureMessageISt6vectorIiSaIiEES4_EENSt7__cxx1112basic_stringIcSt11char_traitsIcESaIcEEERKT_RKT0_
FNDA:0,_ZN7testing8internal33FormatForComparisonFailureMessageIdiEENSt7__cxx1112basic_stringIcSt11char_traitsIcESaIcEEERKT_RKT0_
FNDA:0,_ZN7testing8internal33FormatForComparisonFailureMessageIidEENSt7__cxx1112basic_stringIcSt11char_traitsIcESaIcEEERKT_RKT0_
FNDA:0,_ZN7testing8internal33FormatForComparisonFailureMessageIiiEENSt7__cxx1112basic_stringIcSt11char_traitsIcESaIcEEERKT_RKT0_
FNDA:0,_ZN7testing8internal7PrintToISt6vectorIiSaIiEEEEvRKT_PSo
FNDA:0,_ZN7testing8internal7PrintToIiEEvRKT_PSo
FNDA:0,_ZN7testing8internal21AppropriateResolutionIdEEiT_
FNDA:0,_ZN7testing8internal7PrintToEdPSo
FNDA:0,_ZN7testing8internal16UniversalPrinterISt6vectorIiSaIiEEE5PrintERKS4_PSo
FNDA:0,_ZN7testing8internal16UniversalPrinterIdE5PrintERKdPSo
FNDA:0,_ZN7testing8internal16UniversalPrinterIiE5PrintERKiPSo
FNDA:0,_ZN7testing8internal21UniversalTersePrinterISt6vectorIiSaIiEEE5PrintERKS4_PSo
FNDA:0,_ZN7testing8internal21UniversalTersePrinterIdE5PrintERKdPSo
FNDA:0,_ZN7testing8internal21UniversalTersePrinterIiE5PrintERKiPSo
FNF:28
FNH:0
DA:141,0
DA:142,0
DA:143,0
DA:144,0
DA:145,0
DA:146,0
DA:147,0
DA:148,0
DA:149,0
DA:150,0
DA:153,0
DA:156,0
DA:157,0
DA:160,0
DA:161,0
DA:163,0
DA:164,0
DA:221,0
DA:225,0
DA:226,0
DA:326,0
DA:336,0
DA:337,0
DA:357,0
DA:358,0
DA:437,0
DA:439,0
DA:464,0
DA:465,0
DA:466,0
DA:529,0
DA:530,0
DA:531,0
DA:533,0
DA:534,0
DA:535,0
DA:536,0
DA:537,0
DA:538,0
DA:539,0
DA:540,0
DA:541,0
DA:542,0
DA:543,0
DA:544,0
DA:545,0
DA:546,0
DA:547,0
DA:548,0
DA:549,0
DA:550,0
DA:551,0
DA:552,0
DA:553,0
DA:554,0
DA:556,0
DA:559,0
DA:560,0
DA:561,0
DA:562,0
DA:563,0
DA:564,0
DA:565,0
DA:566,0
DA:567,0
DA:568,0
DA:569,0
DA:571,0
DA:574,0
DA:576,0
DA:586,0
DA:587,0
DA:588,0
DA:589,0
DA:590,0
DA:591,0
DA:799,0
DA:808,0
DA:809,0
DA:989,0
DA:990,0
DA:991,0
DA:1108,0
DA:1112,0
DA:1113,0
DA:1148,0
DA:1149,0
DA:1150,0
DA:1151,0
DA:1152,0
LF:90
LH:0
end_of_record
TN:
SF:/usr/include/gtest/gtest.h
FN:1359,1365,_ZN7testing8internal18CmpHelperEQFailureISt6vectorIiSaIiEES4_EENS_15AssertionResultEPKcS7_RKT_RKT0_
FN:1359,1365,_ZN7testing8internal18CmpHelperEQFailureIdiEENS_15AssertionResultEPKcS4_RKT_RKT0_
FN:1359,1365,_ZN7testing8internal18CmpHelperEQFailureIiiEENS_15AssertionResultEPKcS4_RKT_RKT0_
FN:1376,1384,_ZN7testing8internal11CmpHelperEQISt6vectorIiSaIiEES4_EENS_15AssertionResultEPKcS7_RKT_RKT0_
FN:1376,1384,_ZN7testing8internal11CmpHelperEQIdiEENS_15AssertionResultEPKcS4_RKT_RKT0_
FN:1376,1384,_ZN7testing8internal11CmpHelperEQIiiEENS_15AssertionResultEPKcS4_RKT_RKT0_
FN:1395,1399,_ZN7testing8internal8EqHelper7CompareISt6vectorIiSaIiEES5_LPv0EEENS_15AssertionResultEPKcS9_RKT_RKT0_
FN:1395,1399,_ZN7testing8internal8EqHelper7CompareIdiLPv0EEENS_15AssertionResultEPKcS6_RKT_RKT0_
FN:1395,1399,_ZN7testing8internal8EqHelper7CompareIiiLPv0EEENS_15AssertionResultEPKcS6_RKT_RKT0_
FN:256,256,_ZN7testing4Test14SetUpTestSuiteEv
FN:264,264,_ZN7testing4Test17TearDownTestSuiteEv
FN:269,269,_ZN7testing4Test16TearDownTestCaseEv
FN:270,270,_ZN7testing4Test13SetUpTestCaseEv
FN:357,357,_ZN7testing4Test5SetupEv
FNDA:0,_ZN7testing8internal18CmpHelperEQFailureISt6vectorIiSaIiEES4_EENS_15AssertionResultEPKcS7_RKT_RKT0_
FNDA:0,_ZN7testing8internal18CmpHelperEQFailureIdiEENS_15AssertionResultEPKcS4_RKT_RKT0_
FNDA:0,_ZN7testing8internal18CmpHelperEQFailureIiiEENS_15AssertionResultEPKcS4_RKT_RKT0_
FNDA:3,_ZN7testing8internal11CmpHelperEQISt6vectorIiSaIiEES4_EENS_15AssertionResultEPKcS7_RKT_RKT0_
FNDA:3,_ZN7testing8internal11CmpHelperEQIdiEENS_15AssertionResultEPKcS4_RKT_RKT0_
FNDA:19,_ZN7testing8internal11CmpHelperEQIiiEENS_15AssertionResultEPKcS4_RKT_RKT0_
FNDA:3,_ZN7testing8internal8EqHelper7CompareISt6vectorIiSaIiEES5_LPv0EEENS_15AssertionResultEPKcS9_RKT_RKT0_
FNDA:3,_ZN7testing8internal8EqHelper7CompareIdiLPv0EEENS_15AssertionResultEPKcS6_RKT_RKT0_
FNDA:19,_ZN7testing8internal8EqHelper7CompareIiiLPv0EEENS_15AssertionResultEPKcS6_RKT_RKT0_
FNDA:0,_ZN7testing4Test14SetUpTestSuiteEv
FNDA:0,_ZN7testing4Test17TearDownTestSuiteEv
FNDA:0,_ZN7testing4Test16TearDownTestCaseEv
FNDA:0,_ZN7testing4Test13SetUpTestCaseEv
FNDA:0,_ZN7testing4Test5SetupEv
FNF:14
FNH:6
DA:256,0
DA:264,0
DA:269,0
DA:270,0
DA:357,0
DA:1359,0
DA:1364,0
DA:1376,25
DA:1379,25
DA:1380,25
DA:1383,0
DA:1395,25
DA:1398,25
LF:13
LH:5
end_of_record
TN:
SF:/usr/include/gtest/internal/gtest-internal.h
FN:438,438,_ZN7testing8internal15TestFactoryBaseD0Ev
FN:438,438,_ZN7testing8internal15TestFactoryBaseD2Ev
FN:445,445,_ZN7testing8internal15TestFactoryBaseC2Ev
FN:457,457,_ZN7testing8internal15TestFactoryImplI23MyMathTest_GcdTest_TestE10CreateTestEv
FN:457,457,_ZN7testing8internal15TestFactoryImplI23MyMathTest_LcmTest_TestE10CreateTestEv
FN:457,457,_ZN7testing8internal15TestFactoryImplI24MyMathTest_ReluTest_TestE10CreateTestEv
FN:457,457,_ZN7testing8internal15TestFactoryImplI27MyMathTest_SigmoidTest_TestE10CreateTestEv
FN:457,457,_ZN7testing8internal15TestFactoryImplI29MyMathTest_FactorialTest_TestE10CreateTestEv
FN:457,457,_ZN7testing8internal15TestFactoryImplI29MyMathTest_FibonacciTest_TestE10CreateTestEv
FN:457,457,_ZN7testing8internal15TestFactoryImplI32MyMathTest_PrimeFactorsTest_TestE10CreateTestEv
FN:457,457,_ZN7testing8internal15TestFactoryImplI33MyMathTest_PiCalculationTest_TestE10CreateTestEv
FN:457,457,_ZN7testing8internal15TestFactoryImplI36MyMathTest_MeanSquaredErrorTest_TestE10CreateTestEv
FN:478,479,_ZN7testing8internal12CodeLocationC2ERKNSt7__cxx1112basic_stringIcSt11char_traitsIcESaIcEEEi
FN:491,494,_ZN7testing8internal19GetNotDefaultOrNullEPFvvES2_
FN:506,525,_ZN7testing8internal16SuiteApiResolverINS_4TestEE19GetSetUpCaseOrSuiteEPKci
FN:527,546,_ZN7testing8internal16SuiteApiResolverINS_4TestEE22GetTearDownCaseOrSuiteEPKci
FN:843,843,_ZN7testing8internal14TrueWithStringC2Ev
FN:846,846,_ZNK7testing8internal14TrueWithStringcvbEv
FNDA:0,_ZN7testing8internal15TestFactoryBaseD0Ev
FNDA:9,_ZN7testing8internal15TestFactoryBaseD2Ev
FNDA:9,_ZN7testing8internal15TestFactoryBaseC2Ev
FNDA:1,_ZN7testing8internal15TestFactoryImplI23MyMathTest_GcdTest_TestE10CreateTestEv
FNDA:1,_ZN7testing8internal15TestFactoryImplI23MyMathTest_LcmTest_TestE10CreateTestEv
FNDA:1,_ZN7testing8internal15TestFactoryImplI24MyMathTest_ReluTest_TestE10CreateTestEv
FNDA:1,_ZN7testing8internal15TestFactoryImplI27MyMathTest_SigmoidTest_TestE10CreateTestEv
FNDA:1,_ZN7testing8internal15TestFactoryImplI29MyMathTest_FactorialTest_TestE10CreateTestEv
FNDA:1,_ZN7testing8internal15TestFactoryImplI29MyMathTest_FibonacciTest_TestE10CreateTestEv
FNDA:1,_ZN7testing8internal15TestFactoryImplI32MyMathTest_PrimeFactorsTest_TestE10CreateTestEv
FNDA:1,_ZN7testing8internal15TestFactoryImplI33MyMathTest_PiCalculationTest_TestE10CreateTestEv
FNDA:1,_ZN7testing8internal15TestFactoryImplI36MyMathTest_MeanSquaredErrorTest_TestE10CreateTestEv
FNDA:9,_ZN7testing8internal12CodeLocationC2ERKNSt7__cxx1112basic_stringIcSt11char_traitsIcESaIcEEEi
FNDA:36,_ZN7testing8internal19GetNotDefaultOrNullEPFvvES2_
FNDA:9,_ZN7testing8internal16SuiteApiResolverINS_4TestEE19GetSetUpCaseOrSuiteEPKci
FNDA:9,_ZN7testing8internal16SuiteApiResolverINS_4TestEE22GetTearDownCaseOrSuiteEPKci
FNDA:10,_ZN7testing8internal14TrueWithStringC2Ev
FNDA:10,_ZNK7testing8internal14TrueWithStringcvbEv
FNF:18
FNH:17
DA:438,9
DA:445,9
DA:457,9
DA:478,9
DA:479,9
DA:491,36
DA:493,36
DA:506,9
DA:510,9
DA:512,9
DA:514,9
DA:517,0
DA:519,9
DA:527,9
DA:531,9
DA:533,9
DA:535,9
DA:538,0
DA:540,9
DA:843,10
DA:846,10
LF:21
LH:19
end_of_record
TN:
SF:/usr/include/gtest/internal/gtest-port.h
FN:1042,1042,_ZN7testing8internal8GTestLog9GetStreamEv
FNDA:0,_ZN7testing8internal8GTestLog9GetStreamEv
FNF:1
FNH:0
DA:1042,0
LF:1
LH:0
end_of_record
TN:
SF:/usr/include/gtest/internal/gtest-type-util.h
FN:61,87,_ZN7testing8internal31CanonicalizeForStdLibVersioningENSt7__cxx1112basic_stringIcSt11char_traitsIcESaIcEEE
FN:91,121,_ZN7testing8internal11GetTypeNameB5cxx11ERKSt9type_info
FNDA:0,_ZN7testing8internal31CanonicalizeForStdLibVersioningENSt7__cxx1112basic_stringIcSt11char_traitsIcESaIcEEE
FNDA:0,_ZN7testing8internal11GetTypeNameB5cxx11ERKSt9type_info
FNF:2
FNH:0
DA:61,0
DA:63,0
DA:64,0
DA:65,0
DA:67,0
DA:75,0
DA:78,0
DA:79,0
DA:80,0
DA:83,0
DA:84,0
DA:86,0
DA:91,0
DA:92,0
DA:94,0
DA:100,0
DA:101,0
DA:102,0
DA:103,0
DA:121,0
LF:20
LH:0
end_of_record
TN:
SF:/usr/include/x86_64-linux-gnu/c++/13/bits/c++config.h
FN:540,551,_ZSt23__is_constant_evaluatedv
FNDA:9,_ZSt23__is_constant_evaluatedv
FNF:1
FNH:1
DA:540,9
DA:547,9
LF:2
LH:2
end_of_record
